(dp1
S'status'
p2
(lp3
I1
aI1
aI1
aI1
aI1
aI1
aI1
aI1
aI1
aI1
aI1
aI1
aI1
aI1
aI1
aI1
aI1
aI1
aI1
aI1
aI1
aI1
aI1
aI1
aI1
aI1
aI1
aI1
aI1
aI1
aI1
aI1
aI1
aI1
aI1
aI1
aI1
aI1
aI1
aI1
aI1
aI1
aI1
aI1
aI1
aI1
aI1
aI1
aI1
aI1
aI1
aI1
aI1
aI1
aI1
aI1
aI1
aI1
aI1
aI1
aI1
aI1
aI1
aI1
aI1
aI1
aI1
aI1
aI1
aI1
aI1
aI1
aI1
aI1
aI1
aI1
aI1
aI1
aI1
aI1
aI1
aI1
aI1
aI1
aI1
aI1
aI1
aI1
aI1
aI1
aI1
aI1
aI1
aI1
aI1
aI1
aI1
aI1
aI1
aI1
aI1
aI1
aI1
aI1
aI1
aI1
aI1
aI1
aI1
aI1
aI1
aI1
aI1
aI1
aI1
aI1
aI1
aI1
aI1
aI1
aI1
aI1
aI1
aI1
aI1
aI1
aI1
aI1
aI1
aI1
aI1
aI1
aI1
aI1
aI1
aI1
aI1
aI1
aI1
aI1
aI1
aI1
aI1
aI1
aI1
aI1
aI1
aI1
aI1
aI1
aI1
aI1
aI1
aI1
aI1
aI1
aI1
aI1
aI1
aI1
aI1
aI1
aI1
aI1
aI1
aI1
aI1
aI1
aI1
aI1
aI1
aI1
aI1
aI1
aI1
aI1
aI1
aI1
aI1
aI1
aI1
aI1
aI1
aI1
aI1
aI1
aI1
aI1
aI1
aI1
aI1
aI1
aI1
aI1
aI1
aI1
aI1
aI1
aI1
aI1
aI1
aI1
aI1
aI1
aI1
aI1
aI1
aI1
aI1
aI1
aI1
aI1
aI1
aI1
aI1
aI1
aI1
aI1
aI1
aI1
aI1
aI1
aI1
aI1
aI1
aI1
aI1
aI1
aI1
aI1
aI1
aI1
aI1
aI1
aI1
aI1
aI1
aI1
aI1
aI1
aI1
aI1
aI1
aI1
aI1
aI1
aI1
aI1
aI1
aI1
aI1
aI1
aI1
aI1
aI1
aI1
aI1
aI1
aI1
aI1
aI1
aI1
aI1
aI1
aI1
aI1
aI1
aI1
aI1
aI1
aI1
aI1
aI1
aI1
aI1
aI1
aI1
aI1
aI1
aI1
aI1
aI1
aI1
aI1
aI1
aI1
aI1
aI1
aI1
aI1
aI1
aI1
aI1
aI1
aI1
aI1
aI1
aI1
aI1
aI1
aI1
aI1
aI1
aI1
aI1
aI1
aI1
aI1
aI1
aI1
aI1
aI1
aI1
aI1
aI1
aI1
aI1
aI1
aI1
aI1
aI1
aI1
aI1
aI1
aI1
aI1
aI1
aI1
aI1
aI1
aI1
aI1
aI1
aI1
aI1
aI1
aI1
aI1
aI1
aI1
aI1
aI1
aI1
aI1
aI1
aI1
aI1
aI1
aI1
aI1
aI1
aI1
aI1
aI1
aI1
aI1
aI1
aI1
aI1
aI1
aI1
aI1
aI1
aI1
aI1
aI1
aI1
aI1
aI1
aI1
aI1
aI1
aI1
aI1
aI1
aI1
aI1
aI1
aI1
aI1
aI1
aI1
aI1
aI1
aI1
aI1
aI1
aI1
aI1
aI1
aI1
aI1
aI1
aI1
aI1
aI1
aI1
aI1
aI1
aI1
aI1
aI1
aI1
aI1
aI1
aI1
aI1
aI1
aI1
aI1
aI1
aI1
aI1
aI1
aI1
aI1
aI1
aI1
aI1
aI1
aI1
aI1
aI1
aI1
aI1
aI1
aI1
aI1
aI1
aI1
aI1
aI1
aI1
aI1
aI1
aI1
aI1
aI1
aI1
aI1
aI1
aI1
aI1
aI1
aI1
aI1
aI1
aI1
aI1
aI1
aI1
aI1
aI1
aI1
aI1
aI1
aI1
aI1
aI1
aI1
aI1
aI1
aI1
aI1
aI1
aI1
aI1
aI1
aI1
aI1
aI1
aI1
aI1
aI1
aI1
aI1
aI1
aI1
aI1
aI1
aI1
aI1
aI1
aI1
aI1
aI1
aI1
aI1
aI1
aI1
aI1
aI1
aI1
aI1
aI1
aI1
aI1
aI1
aI1
aI1
aI1
aI1
aI1
aI1
aI1
aI1
aI1
aI1
aI1
aI1
aI1
aI1
aI1
aI1
aI1
aI1
aI1
aI1
aI1
aI1
aI1
aI1
aI1
aI1
aI1
aI1
aI1
aI1
aI1
aI1
aI1
aI1
aI1
aI1
aI1
aI1
aI1
aI1
aI1
aI1
aI1
aI1
aI1
aI1
aI1
aI1
aI1
aI1
aI1
aI1
aI1
aI1
aI1
aI1
aI1
aI1
aI1
aI1
aI1
aI1
aI1
aI1
aI1
aI1
aI1
aI1
aI1
aI1
aI1
aI1
aI1
aI1
aI1
aI1
aI1
aI1
aI1
aI1
aI1
aI1
aI1
aI1
aI1
aI1
aI1
aI1
aI1
aI1
aI1
aI1
aI1
aI1
aI1
aI1
aI1
aI1
aI1
aI1
aI1
aI1
aI1
aI1
aI1
aI1
aI1
aI1
aI1
aI1
aI1
aI1
aI1
aI1
aI1
aI1
aI1
aI1
aI1
aI1
aI1
aI1
aI1
aI1
aI1
aI1
aI1
aI1
aI1
aI1
aI1
aI1
aI1
aI1
aI1
aI1
aI1
aI1
aI1
aI1
aI1
aI1
aI1
aI1
aI1
aI1
aI1
aI1
aI1
aI1
aI1
aI1
aI1
aI1
aI1
aI1
aI1
aI1
aI1
aI1
aI1
aI1
aI1
aI1
aI1
aI1
aI1
aI1
aI1
aI1
aI1
aI1
aI1
aI1
aI1
aI1
aI1
aI1
aI1
aI1
aI1
aI1
aI1
aI1
aI1
aI1
aI1
aI1
aI1
aI1
aI1
aI1
aI1
aI1
aI1
aI1
aI1
aI1
aI1
aI1
aI1
aI1
aI1
aI1
aI1
aI1
aI1
aI1
aI1
aI1
aI1
aI1
aI1
aI1
aI1
aI1
aI1
aI1
aI1
aI1
aI1
aI1
aI1
aI1
aI1
aI1
aI1
aI1
aI1
aI1
aI1
aI1
aI1
aI1
aI1
aI1
aI1
aI1
aI1
aI1
aI1
aI1
aI1
aI1
aI1
aI1
aI1
aI1
aI1
aI1
aI1
aI1
aI1
aI1
aI1
aI1
aI1
aI1
aI1
aI1
aI1
aI1
aI1
aI1
aI1
aI1
aI1
aI1
aI1
aI1
aI1
aI1
aI1
aI1
aI1
aI1
aI1
aI1
aI1
aI1
aI1
aI1
aI1
aI1
aI1
aI1
aI1
aI1
aI1
aI1
aI1
aI1
aI1
aI1
aI1
aI1
aI1
aI1
aI1
aI1
aI1
aI1
aI1
aI1
aI1
aI1
aI1
aI1
aI1
aI1
aI1
aI1
aI1
aI1
aI1
aI1
aI1
aI1
aI1
aI1
aI1
aI1
aI1
aI1
aI1
aI1
aI1
aI1
aI1
aI1
aI1
aI1
aI1
aI1
aI1
aI1
aI1
aI1
aI1
aI1
aI1
aI1
aI1
aI1
aI1
aI1
aI1
aI1
aI1
aI1
aI1
aI1
aI1
aI1
aI1
aI1
aI1
aI1
aI1
aI1
aI1
aI1
aI1
aI1
aI1
aI1
aI1
aI1
aI1
aI1
aI1
aI1
aI1
aI1
aI1
aI1
aI1
aI1
aI1
aI1
aI1
aI1
aI1
aI1
aI1
aI1
aI1
aI1
aI1
aI1
aI1
aI1
aI1
aI1
aI1
aI1
aI1
aI1
aI1
aI1
aI1
aI1
aI1
aI1
aI1
aI1
aI1
aI1
aI1
aI1
aI1
aI1
aI1
aI1
aI1
aI1
aI1
aI1
aI1
aI1
aI1
aI1
aI1
aI1
aI1
aI1
aI1
aI1
aI1
aI1
aI1
aI1
aI1
aI1
aI1
aI1
aI1
aI1
aI1
aI1
aI1
aI1
aI1
aI1
aI1
aI1
aI1
aI1
aI1
aI1
aI1
aI1
aI1
aI1
aI1
aI1
aI1
aI1
aI1
aI1
aI1
aI1
aI1
aI1
aI1
aI1
aI1
aI1
aI1
aI1
aI1
aI1
aI1
aI1
aI1
aI1
aI1
aI1
aI1
aI1
aI1
aI1
aI1
aI1
aI1
aI1
aI1
aI1
aI1
aI1
aI1
aI1
aI1
aI1
aI1
aI1
aI1
aI1
aI1
aI1
aI1
aI1
aI1
aI1
aI1
aI1
aI1
aI1
aI1
aI1
aI1
aI1
aI1
aI1
aI1
aI1
aI1
aI1
aI1
aI1
aI1
aI1
aI1
aI1
aI1
aI1
aI1
aI1
aI1
aI1
aI1
aI1
aI1
aI1
aI1
aI1
aI1
aI1
aI1
aI1
aI1
aI1
aI1
aI1
aI1
aI1
aI1
aI1
aI1
aI1
aI1
aI1
aI1
aI1
aI1
aI1
aI1
aI1
aI1
aI1
aI1
aI1
aI1
aI1
aI1
aI1
aI1
aI1
aI1
aI1
aI1
aI1
aI1
aI1
aI1
aI1
aI1
aI1
aI1
aI1
aI1
aI1
aI1
aI1
aI1
aI1
aI1
aI1
aI1
aI1
aI1
aI1
aI1
aI1
aI1
aI1
aI1
aI1
aI1
aI1
aI1
aI1
aI1
aI1
aI1
aI1
aI1
aI1
aI1
aI1
aI1
aI1
aI1
aI1
aI1
aI1
aI1
aI1
aI1
aI1
aI1
aI1
aI1
aI1
aI1
aI1
aI1
aI1
aI1
aI1
aI1
aI1
aI1
aI1
aI1
aI1
aI1
aI1
aI1
aI1
aI1
aI1
aI1
aI1
aI1
aI1
aI1
aI1
aI1
aI1
aI1
aI1
aI1
aI1
aI1
aI1
aI1
aI1
aI1
aI1
aI1
aI1
aI1
aI1
aI1
aI1
aI1
aI1
aI1
aI1
aI1
aI1
aI1
aI1
aI1
aI1
aI1
aI1
aI1
aI1
aI1
aI1
aI1
aI1
aI1
aI1
aI1
aI1
aI1
aI1
aI1
aI1
aI1
aI1
aI1
aI1
aI1
aI1
aI1
aI1
aI1
aI1
aI1
aI1
aI1
aI1
aI1
aI1
aI1
aI1
aI1
aI1
aI1
aI1
aI1
aI1
aI1
aI1
aI1
aI1
aI1
aI1
aI1
aI1
aI1
aI1
aI1
aI1
aI1
aI1
aI1
aI1
aI1
aI1
aI1
aI1
aI1
aI1
aI1
aI1
aI1
aI1
aI1
aI1
aI1
aI1
aI1
aI1
aI1
aI1
aI1
aI1
aI1
aI1
aI1
aI1
aI1
aI1
aI1
aI1
aI1
aI1
aI1
aI1
aI1
aI1
aI1
aI1
aI1
aI1
aI1
aI1
aI1
aI1
aI1
aI1
aI1
aI1
aI1
aI1
aI1
aI1
aI1
aI1
aI1
aI1
aI1
aI1
aI1
aI1
aI1
aI1
aI1
aI1
aI1
aI1
aI1
aI1
aI1
aI1
aI1
aI1
aI1
aI1
aI1
aI1
aI1
aI1
aI1
aI1
aI1
aI1
aI1
aI1
aI1
aI1
aI1
aI1
aI1
aI1
aI1
aI1
aI1
aI1
aI1
aI1
aI1
aI1
aI1
aI1
aI1
aI1
aI1
aI1
aI1
aI1
aI1
aI1
aI1
aI1
aI1
aI1
aI1
aI1
aI1
aI1
aI1
aI1
aI1
aI1
aI1
aI1
aI1
aI1
aI1
aI1
aI1
aI1
aI1
aI1
aI1
aI1
aI1
aI1
aI1
aI1
aI1
aI1
aI1
aI1
aI1
aI1
aI1
aI1
aI1
aI1
aI1
aI1
aI1
aI1
aI1
aI1
aI1
aI1
aI1
aI1
aI1
aI1
aI1
aI1
aI1
aI1
aI1
aI1
aI1
aI1
aI1
aI1
aI1
aI1
aI1
aI1
aI1
aI1
aI1
aI1
aI1
aI1
aI1
aI1
aI1
aI1
aI1
aI1
aI1
aI1
aI1
aI1
aI1
aI1
aI1
aI1
aI1
aI1
aI1
aI1
aI1
aI1
aI1
aI1
aI1
aI1
aI1
aI1
aI1
aI1
aI1
aI1
aI1
aI1
aI1
aI1
aI1
aI1
aI1
aI1
aI1
aI1
aI1
aI1
aI1
aI1
aI1
aI1
aI1
aI1
aI1
aI1
aI1
aI1
aI1
aI1
aI1
aI1
aI1
aI1
aI1
aI1
aI1
aI1
aI1
aI1
aI1
aI1
aI1
aI1
aI1
aI1
aI1
aI1
aI1
aI1
aI1
aI1
aI1
aI1
aI1
aI1
aI1
aI1
aI1
aI1
aI1
aI1
aI1
aI1
aI1
aI1
aI1
aI1
aI1
aI1
aI1
aI1
aI1
aI1
aI1
aI1
aI1
aI1
aI1
aI1
aI1
aI1
aI1
aI1
aI1
aI1
aI1
aI1
aI1
aI1
aI1
aI1
aI1
aI1
aI1
aI1
aI1
aI1
aI1
aI1
aI1
aI1
aI1
aI1
aI1
aI1
aI1
aI1
aI1
aI1
aI1
aI1
aI1
aI1
aI1
aI1
aI1
aI1
aI1
aI1
aI1
aI1
aI1
aI1
aI1
aI1
aI1
aI1
aI1
aI1
aI1
aI1
aI1
aI1
aI1
aI1
aI1
aI1
aI1
aI1
aI1
aI1
aI1
aI1
aI1
aI1
aI1
aI1
aI1
aI1
aI1
aI1
aI1
aI1
aI1
aI1
aI1
aI1
aI1
aI1
aI1
aI1
aI1
aI1
aI1
aI1
aI1
aI1
aI1
aI1
aI1
aI1
aI1
aI1
aI1
aI1
aI1
aI1
aI1
aI1
aI1
aI1
aI1
aI1
aI1
aI1
aI1
aI1
aI1
aI1
aI1
aI1
aI1
aI1
aI1
aI1
aI1
aI1
aI1
aI1
aI1
aI1
aI1
aI1
aI1
aI1
aI1
aI1
aI1
aI1
aI1
aI1
aI1
aI1
aI1
aI1
aI1
aI1
aI1
aI1
aI1
aI1
aI1
aI1
aI1
aI1
aI1
aI1
aI1
aI1
aI1
aI1
aI1
aI1
aI1
aI1
aI1
aI1
aI1
aI1
aI1
aI1
aI1
aI1
aI1
aI1
aI1
aI1
aI1
aI1
aI1
aI1
aI1
aI1
aI1
aI1
aI1
aI1
aI1
aI1
aI1
aI1
aI1
aI1
aI1
aI1
aI1
aI1
aI1
aI1
aI1
aI1
aI1
aI1
aI1
aI1
aI1
aI1
aI1
aI1
aI1
aI1
aI1
aI1
aI1
aI1
aI1
aI1
aI1
aI1
aI1
aI1
aI1
aI1
aI1
aI1
aI1
aI1
aI1
aI1
aI1
aI1
aI1
aI1
aI1
aI1
aI1
aI1
aI1
aI1
aI1
aI1
aI1
aI1
aI1
aI1
aI1
aI1
aI1
aI1
aI1
aI1
aI1
aI1
aI1
aI1
aI1
aI1
aI1
aI1
aI1
aI1
aI1
aI1
aI1
aI1
aI1
aI1
aI1
aI1
aI1
aI1
aI1
aI1
aI1
aI1
aI1
aI1
aI1
aI1
aI1
aI1
aI1
aI1
aI1
aI1
aI1
aI1
aI1
aI1
aI1
aI1
aI1
aI1
aI1
aI1
aI1
aI1
aI1
aI1
aI1
aI1
aI1
aI1
aI1
aI1
aI1
aI1
aI1
aI1
aI1
aI1
aI1
aI1
aI1
aI1
aI1
aI1
aI1
aI1
aI1
aI1
aI1
aI1
aI1
aI1
aI1
aI1
aI1
aI1
aI1
aI1
aI1
aI1
aI1
aI1
aI1
aI1
aI1
aI1
aI1
aI1
aI1
aI1
aI1
aI1
aI1
aI1
aI1
aI1
aI1
aI1
aI1
aI1
aI1
aI1
aI1
aI1
aI1
aI1
aI1
aI1
aI1
aI1
aI1
aI1
aI1
aI1
aI1
aI1
aI1
aI1
aI1
aI1
aI1
aI1
aI1
aI1
aI1
aI1
aI1
aI1
aI1
aI1
aI1
aI1
aI1
aI1
aI1
aI1
aI1
aI1
aI1
aI1
aI1
aI1
aI1
aI1
aI1
aI1
aI1
aI1
aI1
aI1
aI1
aI1
aI1
aI1
aI1
aI1
aI1
aI1
aI1
aI1
aI1
aI1
aI1
aI1
aI1
aI1
aI1
aI1
aI1
aI1
aI1
aI1
aI1
aI1
aI1
aI1
aI1
aI1
aI1
aI1
aI1
aI1
aI1
aI1
aI1
aI1
aI1
aI1
aI1
aI1
aI1
aI1
aI1
aI1
aI1
aI1
aI1
aI1
aI1
aI1
aI1
aI1
aI1
aI1
aI1
aI1
aI1
aI1
aI1
aI1
aI1
aI1
aI1
aI1
aI1
aI1
aI1
aI1
aI1
aI1
aI1
aI1
aI1
aI1
aI1
aI1
aI1
aI1
aI1
aI1
aI1
aI1
aI1
aI1
aI1
aI1
aI1
aI1
aI1
aI1
aI1
aI1
aI1
aI1
aI1
aI1
aI1
aI1
aI1
aI1
aI1
aI1
aI1
aI1
aI1
aI1
aI1
aI1
aI1
aI1
aI1
aI1
aI1
aI1
aI1
aI1
aI1
aI1
aI1
aI1
aI1
aI1
aI1
aI1
aI1
aI1
aI1
aI1
aI1
aI1
aI1
aI1
aI1
aI1
aI1
aI1
aI1
aI1
aI1
aI1
aI1
aI1
aI1
aI1
aI1
aI1
aI1
aI1
aI1
aI1
aI1
aI1
aI1
aI1
aI1
aI1
aI1
aI1
aI1
aI1
aI1
aI1
aI1
aI1
aI1
aI1
aI1
aI1
aI1
aI1
aI1
aI1
aI1
aI1
aI1
aI1
aI1
aI1
aI1
aI1
aI1
aI1
aI1
aI1
aI1
aI1
aI1
aI1
aI1
aI1
aI1
aI1
aI1
aI1
aI1
aI1
aI1
aI1
aI1
aI1
aI1
aI1
aI1
aI1
aI1
aI1
aI1
aI1
aI1
aI1
aI1
aI1
aI1
aI1
aI1
aI1
aI1
aI1
aI1
aI1
aI1
aI1
aI1
aI1
aI1
aI1
aI1
aI1
aI1
aI1
aI1
aI1
aI1
aI1
aI1
aI1
aI1
aI1
aI1
aI1
aI1
aI1
aI1
aI1
aI1
aI1
aI1
aI1
aI1
aI1
aI1
aI1
aI1
aI1
aI1
aI1
aI1
aI1
aI1
aI1
aI1
aI1
aI1
aI1
aI1
aI1
aI1
aI1
aI1
aI1
aI1
aI1
aI1
aI1
aI1
aI1
aI1
aI1
aI1
aI1
aI1
aI1
aI1
aI1
aI1
aI1
aI1
aI1
aI1
aI1
aI1
aI1
aI1
aI1
aI1
aI1
aI1
aI1
aI1
aI1
aI1
aI1
aI1
aI1
aI1
aI1
aI1
aI1
aI1
aI1
aI1
aI1
aI1
aI1
aI1
aI1
aI1
aI1
aI1
aI1
aI1
aI1
aI1
aI1
aI1
aI1
aI1
aI1
aI1
aI1
aI1
aI1
aI1
aI1
aI1
aI1
aI1
aI1
aI1
aI1
aI1
aI1
aI1
aI1
aI1
aI1
aI1
aI1
aI1
aI1
aI1
aI1
aI1
aI1
aI1
aI1
aI1
aI1
aI1
aI1
aI1
aI1
aI1
aI1
aI1
aI1
aI1
aI1
aI1
aI1
aI1
aI1
aI1
aI1
aI1
aI1
aI1
aI1
aI1
aI1
aI1
aI1
aI1
aI1
aI1
aI1
aI1
aI1
aI1
aI1
aI1
aI1
aI1
aI1
aI1
aI1
aI1
aI1
aI1
aI1
aI1
aI1
aI1
aI1
aI1
aI1
aI1
aI1
aI1
aI1
aI1
aI1
aI1
aI1
aI1
aI1
aI1
aI1
aI1
aI1
aI1
aI1
aI1
aI1
aI1
aI1
aI1
aI1
aI1
aI1
aI1
aI1
aI1
aI1
aI1
aI1
aI1
aI1
aI1
aI1
aI1
aI1
aI1
aI1
aI1
aI1
aI1
aI1
aI1
aI1
aI1
aI1
aI1
aI1
aI1
aI1
aI1
aI1
aI1
aI1
aI1
aI1
aI1
aI1
aI1
aI1
aI1
aI1
aI1
aI1
aI1
aI1
aI1
aI1
aI1
aI1
aI1
aI1
aI1
aI1
aI1
aI1
aI1
aI1
aI1
aI1
aI1
aI1
aI1
aI1
aI1
aI1
aI1
aI1
aI1
aI1
aI1
aI1
aI1
aI1
aI1
aI1
aI1
aI1
aI1
aI1
aI1
aI1
aI1
aI1
aI1
aI1
aI1
aI1
aI1
aI1
aI1
aI1
aI1
aI1
aI1
aI1
aI1
aI1
aI1
aI1
aI1
aI1
aI1
aI1
aI1
aI1
aI1
aI1
aI1
aI1
aI1
aI1
aI1
aI1
aI1
aI1
aI1
aI1
aI1
aI1
aI1
aI1
aI1
aI1
aI1
aI1
aI1
aI1
aI1
aI1
aI1
aI1
aI1
aI1
aI1
aI1
aI1
aI1
aI1
aI1
aI1
aI1
aI1
aI1
aI1
aI1
aI1
aI1
aI1
aI1
aI1
aI1
aI1
aI1
aI1
aI1
aI1
aI1
aI1
aI1
aI1
aI1
aI1
aI1
aI1
aI1
aI1
aI1
aI1
aI1
aI1
aI1
aI1
aI1
aI1
aI1
aI1
aI1
aI1
aI1
aI1
aI1
aI1
aI1
aI1
aI1
aI1
aI1
aI1
aI1
aI1
aI1
aI1
aI1
aI1
aI1
aI1
aI1
aI1
aI1
aI1
aI1
aI1
aI1
aI1
aI1
aI1
aI1
aI1
aI1
aI1
aI1
aI1
aI1
aI1
aI1
aI1
aI1
aI1
aI1
aI1
aI1
aI1
aI1
aI1
aI1
aI1
aI1
aI1
aI1
aI1
aI1
aI1
aI1
aI1
aI1
aI1
aI1
aI1
aI1
aI1
aI1
aI1
aI1
aI1
aI1
aI1
aI1
aI1
aI1
aI1
aI1
aI1
aI1
aI1
aI1
aI1
aI1
aI1
aI1
aI1
aI1
aI1
aI1
aI1
aI1
aI1
aI1
aI1
aI1
aI1
aI1
aI1
aI1
aI1
aI1
aI1
aI1
aI1
aI1
aI1
aI1
aI1
aI1
aI1
aI1
aI1
aI1
aI1
aI1
aI1
aI1
aI1
aI1
aI1
aI1
aI1
aI1
aI1
aI1
aI1
aI1
aI1
aI1
aI1
aI1
aI1
aI1
aI1
aI1
aI1
aI1
aI1
aI1
aI1
aI1
aI1
aI1
aI1
aI1
aI1
aI1
aI1
aI1
aI1
aI1
aI1
aI1
aI1
aI1
aI1
aI1
aI1
aI1
aI1
aI1
aI1
aI1
aI1
aI1
aI1
aI1
aI1
aI1
aI1
aI1
aI1
aI1
aI1
aI1
aI1
aI1
aI1
aI1
aI1
aI1
aI1
aI1
aI1
aI1
aI1
aI1
aI1
aI1
aI1
aI1
aI1
aI1
aI1
aI1
aI1
aI1
aI1
aI1
aI1
aI1
aI1
aI1
aI1
aI1
aI1
aI1
aI1
aI1
aI1
aI1
aI1
aI1
aI1
aI1
aI1
aI1
aI1
aI1
aI1
aI1
aI1
aI1
aI1
aI1
aI1
aI1
aI1
aI1
aI1
aI1
aI1
aI1
aI1
aI1
aI1
aI1
aI1
aI1
aI1
aI1
aI1
aI1
aI1
aI1
aI1
aI1
aI1
aI1
aI1
aI1
aI1
aI1
aI1
aI1
aI1
aI1
aI1
aI1
aI1
aI1
aI1
aI1
aI1
aI1
aI1
aI1
aI1
aI1
aI1
aI1
aI1
aI1
aI1
aI1
aI1
aI1
aI1
aI1
aI1
aI1
aI1
aI1
aI1
aI1
aI1
aI1
aI1
aI1
aI1
aI1
aI1
aI1
aI1
aI1
aI1
aI1
aI1
aI1
aI1
aI1
aI1
aI1
aI1
aI1
aI1
aI1
aI1
aI1
aI1
aI1
aI1
aI1
aI1
aI1
aI1
aI1
aI1
aI1
aI1
aI1
aI1
aI1
aI1
aI1
aI1
aI1
aI1
aI1
aI1
aI1
aI1
aI1
aI1
aI1
aI1
aI1
aI1
aI1
aI1
aI1
aI1
aI1
aI1
aI1
aI1
aI1
aI1
aI1
aI1
aI1
aI1
aI1
aI1
aI1
aI1
aI1
aI1
aI1
aI1
aI1
aI1
aI1
aI1
aI1
aI1
aI1
aI1
aI1
aI1
aI1
aI1
aI1
aI1
aI1
aI1
aI1
aI1
aI1
aI1
aI1
aI1
aI1
aI1
aI1
aI1
aI1
aI1
aI1
aI1
aI1
aI1
aI1
aI1
aI1
aI1
aI1
aI1
aI1
aI1
aI1
aI1
aI1
aI1
aI1
aI1
aI1
aI1
aI1
aI1
aI1
aI1
aI1
aI1
aI1
aI1
aI1
aI1
aI1
aI1
aI1
aI1
aI1
aI1
aI1
aI1
aI1
aI1
aI1
aI1
aI1
aI1
aI1
aI1
aI1
aI1
aI1
aI1
aI1
aI1
aI1
aI1
aI1
aI1
aI1
aI1
aI1
aI1
aI1
aI1
aI1
aI1
aI1
aI1
aI1
aI1
aI1
aI1
aI1
aI1
aI1
aI1
aI1
aI1
aI1
aI1
aI1
aI1
aI1
aI1
aI1
aI1
aI1
aI1
aI1
aI1
aI1
aI1
aI1
aI1
aI1
aI1
aI1
aI1
aI1
aI1
aI1
aI1
aI1
aI1
aI1
aI1
aI1
aI1
aI1
aI1
aI1
aI1
aI1
aI1
aI1
aI1
aI1
aI1
aI1
aI1
aI1
aI1
aI1
aI1
aI1
aI1
aI1
aI1
aI1
aI1
aI1
aI1
aI1
aI1
aI1
aI1
aI1
aI1
aI1
aI1
aI1
aI1
aI1
aI1
aI1
aI1
aI1
aI1
aI1
aI1
aI1
aI1
aI1
aI1
aI1
aI1
aI1
aI1
aI1
aI1
aI1
aI1
aI1
aI1
aI1
aI1
aI1
aI1
aI1
aI1
aI1
aI1
aI1
aI1
aI1
aI1
aI1
aI1
aI1
aI1
aI1
aI1
aI1
aI1
aI1
aI1
aI1
aI1
aI1
aI1
aI1
aI1
aI1
aI1
aI1
aI1
aI1
aI1
aI1
aI1
aI1
aI1
aI1
aI1
aI1
aI1
aI1
aI1
aI1
aI1
aI1
aI1
aI1
aI1
aI1
aI1
aI1
aI1
aI1
aI1
aI1
aI1
aI1
aI1
aI1
aI1
aI1
aI1
aI1
aI1
aI1
aI1
aI1
aI1
aI1
aI1
aI1
aI1
aI1
aI1
aI1
aI1
aI1
aI1
aI1
aI1
aI1
aI1
aI1
aI1
aI1
aI1
aI1
aI1
aI1
aI1
aI1
aI1
aI1
aI1
aI1
aI1
aI1
aI1
aI1
aI1
aI1
aI1
aI1
aI1
aI1
aI1
aI1
aI1
aI1
aI1
aI1
aI1
aI1
aI1
aI1
aI1
aI1
aI1
aI1
aI1
aI1
aI1
aI1
aI1
aI1
aI1
aI1
aI1
aI1
aI1
aI1
aI1
aI1
aI1
aI1
aI1
aI1
aI1
aI1
aI1
aI1
aI1
aI1
aI1
aI1
aI1
aI1
aI1
aI1
aI1
aI1
aI1
aI1
aI1
aI1
aI1
aI1
aI1
aI1
aI1
aI1
aI1
aI1
aI1
aI1
aI1
aI1
aI1
aI1
aI1
aI1
aI1
aI1
aI1
aI1
aI1
aI1
aI1
aI1
aI1
aI1
aI1
aI1
aI1
aI1
aI1
aI1
aI1
aI1
aI1
aI1
aI1
aI1
aI1
aI1
aI1
aI1
aI1
aI1
aI1
aI1
aI1
aI1
aI1
aI1
aI1
aI1
aI1
aI1
aI1
aI1
aI1
aI1
aI1
aI1
aI1
aI1
aI1
aI1
aI1
aI1
aI1
aI1
aI1
aI1
aI1
aI1
aI1
aI1
aI1
aI1
aI1
aI1
aI1
aI1
aI1
aI1
aI1
aI1
aI1
aI1
aI1
aI1
aI1
aI1
aI1
aI1
aI1
aI1
aI1
aI1
aI1
aI1
aI1
aI1
aI1
aI1
aI1
aI1
aI1
aI1
aI1
aI1
aI1
aI1
aI1
aI1
aI1
aI1
aI1
aI1
aI1
aI1
aI1
aI1
aI1
aI1
aI1
aI1
aI1
aI1
aI1
aI1
aI1
aI1
aI1
aI1
aI1
aI1
aI1
aI1
aI1
aI1
aI1
aI1
aI1
aI1
aI1
aI1
aI1
aI1
aI1
aI1
aI1
aI1
aI1
aI1
aI1
aI1
aI1
aI1
aI1
aI1
aI1
aI1
aI1
aI1
aI1
aI1
aI1
aI1
aI1
aI1
aI1
aI1
aI1
aI1
aI1
aI1
aI1
aI1
aI1
aI1
aI1
aI1
aI1
aI1
aI1
aI1
aI1
aI1
aI1
aI1
aI1
aI1
aI1
aI1
aI1
aI1
aI1
aI1
aI1
aI1
aI1
aI1
aI1
aI1
aI1
aI1
aI1
aI1
aI1
aI1
aI1
aI1
aI1
aI1
aI1
aI1
aI1
aI1
aI1
aI1
aI1
aI1
aI1
aI1
aI1
aI1
aI1
aI1
aI1
aI1
aI1
aI1
aI1
aI1
aI1
aI1
aI1
aI1
aI1
aI1
aI1
aI1
aI1
aI1
aI1
aI1
aI1
aI1
aI1
aI1
aI1
aI1
aI1
aI1
aI1
aI1
aI1
aI1
aI1
aI1
aI1
aI1
aI1
aI1
aI1
aI1
aI1
aI1
aI1
aI1
aI1
aI1
aI1
aI1
aI1
aI1
aI1
aI1
aI1
aI1
aI1
aI1
aI1
aI1
aI1
aI1
aI1
aI1
aI1
aI1
aI1
aI1
aI1
aI1
aI1
aI1
aI1
aI1
aI1
aI1
aI1
aI1
aI1
aI1
aI1
aI1
aI1
aI1
aI1
aI1
aI1
aI1
aI1
aI1
aI1
aI1
aI1
aI1
aI1
aI1
aI1
aI1
aI1
aI1
aI1
aI1
aI1
aI1
aI1
aI1
aI1
aI1
aI1
aI1
aI1
aI1
aI1
aI1
aI1
aI1
aI1
aI1
aI1
aI1
aI1
aI1
aI1
aI1
aI1
aI1
aI1
aI1
aI1
aI1
aI1
aI1
aI1
aI1
aI1
aI1
aI1
aI1
aI1
aI1
aI1
aI1
aI1
aI1
aI1
aI1
aI1
aI1
aI1
aI1
aI1
aI1
aI1
aI1
aI1
aI1
aI1
aI1
aI1
aI1
aI1
aI1
aI1
aI1
aI1
aI1
aI1
aI1
aI1
aI1
aI1
aI1
aI1
aI1
aI1
aI1
aI1
aI1
aI1
aI1
aI1
aI1
aI1
aI1
aI1
aI1
aI1
aI1
aI1
aI1
aI1
aI1
aI1
aI1
aI1
aI1
aI1
aI1
aI1
aI1
aI1
aI1
aI1
aI1
aI1
aI1
aI1
aI1
aI1
aI1
aI1
aI1
aI1
aI1
aI1
aI1
aI1
aI1
aI1
aI1
aI1
aI1
aI1
aI1
aI1
aI1
aI1
aI1
aI1
aI1
aI1
aI1
aI1
aI1
aI1
aI1
aI1
aI1
aI1
aI1
aI1
aI1
aI1
aI1
aI1
aI1
aI1
aI1
aI1
aI1
aI1
aI1
aI1
aI1
aI1
aI1
aI1
aI1
aI1
aI1
aI1
aI1
aI1
aI1
aI1
aI1
aI1
aI1
aI1
aI1
aI1
aI1
aI1
aI1
aI1
aI1
aI1
aI1
aI1
aI1
aI1
aI1
aI1
aI1
aI1
aI1
aI1
aI1
aI1
aI1
aI1
aI1
aI1
aI1
aI1
aI1
aI1
aI1
aI1
aI1
aI1
aI1
aI1
aI1
aI1
aI1
aI1
aI1
aI1
aI1
aI1
aI1
aI1
aI1
aI1
aI1
aI1
aI1
aI1
aI1
aI1
aI1
aI1
aI1
aI1
aI1
aI1
aI1
aI1
aI1
aI1
aI1
aI1
aI1
aI1
aI1
aI1
aI1
aI1
aI1
aI1
aI1
aI1
aI1
aI1
aI1
aI1
aI1
aI1
aI1
aI1
aI1
aI1
aI1
aI1
aI1
aI1
aI1
aI1
aI1
aI1
aI1
aI1
aI1
aI1
aI1
aI1
aI1
aI1
aI1
aI1
aI1
aI1
aI1
aI1
aI1
aI1
aI1
aI1
aI1
aI1
aI1
aI1
aI1
aI1
aI1
aI1
aI1
aI1
aI1
aI1
aI1
aI1
aI1
aI1
aI1
aI1
aI1
aI1
aI1
aI1
aI1
aI1
aI1
aI1
aI1
aI1
aI1
aI1
aI1
aI1
aI1
aI1
aI1
aI1
aI1
aI1
aI1
aI1
aI1
aI1
aI1
aI1
aI1
aI1
aI1
aI1
aI1
aI1
aI1
aI1
aI1
aI1
aI1
aI1
aI1
aI1
aI1
aI1
aI1
aI1
aI1
aI1
aI1
aI1
aI1
aI1
aI1
aI1
aI1
aI1
aI1
aI1
aI1
aI1
aI1
aI1
aI1
aI1
aI1
aI1
aI1
aI1
aI1
aI1
aI1
aI1
aI1
aI1
aI1
aI1
aI1
aI1
aI1
aI1
aI1
aI1
aI1
aI1
aI1
aI1
aI1
aI1
aI1
aI1
aI1
aI1
aI1
aI1
aI1
aI1
aI1
aI1
aI1
aI1
aI1
aI1
aI1
aI1
aI1
aI1
aI1
aI1
aI1
aI1
aI1
aI1
aI1
aI1
aI1
aI1
aI1
aI1
aI1
aI1
aI1
aI1
aI1
aI1
aI1
aI1
aI1
aI1
aI1
aI1
aI1
aI1
aI1
aI1
aI1
aI1
aI1
aI1
aI1
aI1
aI1
aI1
aI1
aI1
aI1
aI1
aI1
aI1
aI1
aI1
aI1
aI1
aI1
aI1
aI1
aI1
aI1
aI1
aI1
aI1
aI1
aI1
aI1
aI1
aI1
aI1
aI1
aI1
aI1
aI1
aI1
aI1
aI1
aI1
aI1
aI1
aI1
aI1
aI1
aI1
aI1
aI1
aI1
aI1
aI1
aI1
aI1
aI1
aI1
aI1
aI1
aI1
aI1
aI1
aI1
aI1
aI1
aI1
aI1
aI1
aI1
aI1
aI1
aI1
aI1
aI1
aI1
aI1
aI1
aI1
aI1
aI1
aI1
aI1
aI1
aI1
aI1
aI1
aI1
aI1
aI1
aI1
aI1
aI1
aI1
aI1
aI1
aI1
aI1
aI1
aI1
aI1
aI1
aI1
aI1
aI1
aI1
aI1
aI1
aI1
aI1
aI1
aI1
aI1
aI1
aI1
aI1
aI1
aI1
aI1
aI1
aI1
aI1
aI1
aI1
aI1
aI1
aI1
aI1
aI1
aI1
aI1
aI1
aI1
aI1
aI1
aI1
aI1
aI1
aI1
aI1
aI1
aI1
aI1
aI1
aI1
aI1
aI1
aI1
aI1
aI1
aI1
aI1
aI1
aI1
aI1
aI1
aI1
aI1
aI1
aI1
aI1
aI1
aI1
aI1
aI1
aI1
aI1
aI1
aI1
aI1
aI1
aI1
aI1
aI1
aI1
aI1
aI1
aI1
aI1
aI1
aI1
aI1
aI1
aI1
aI1
aI1
aI1
aI1
aI1
aI1
aI1
aI1
aI1
aI1
aI1
aI1
aI1
aI1
aI1
aI1
aI1
aI1
aI1
aI1
aI1
aI1
aI1
aI1
aI1
aI1
aI1
aI1
aI1
aI1
aI1
aI1
aI1
aI1
aI1
aI1
aI1
aI1
aI1
aI1
aI1
aI1
aI1
aI1
aI1
aI1
aI1
aI1
aI1
aI1
aI1
aI1
aI1
aI1
aI1
aI1
aI1
aI1
aI1
aI1
aI1
aI1
aI1
aI1
aI1
aI1
aI1
aI1
aI1
aI1
aI1
aI1
aI1
aI1
aI1
aI1
aI1
aI1
aI1
aI1
aI1
aI1
aI1
aI1
aI1
aI1
aI1
aI1
aI1
aI1
aI1
aI1
aI1
aI1
aI1
aI1
aI1
aI1
aI1
aI1
aI1
aI1
aI1
aI1
aI1
aI1
aI1
aI1
aI1
aI1
aI1
aI1
aI1
aI1
aI1
aI1
aI1
aI1
aI1
aI1
aI1
aI1
aI1
aI1
aI1
aI1
aI1
aI1
aI1
aI1
aI1
aI1
aI1
aI1
aI1
aI1
aI1
aI1
aI1
aI1
aI1
aI1
aI1
aI1
aI1
aI1
aI1
aI1
aI1
aI1
aI1
aI1
aI1
aI1
aI1
aI1
aI1
aI1
aI1
aI1
aI1
aI1
aI1
aI1
aI1
aI1
aI1
aI1
aI1
aI1
aI1
aI1
aI1
aI1
aI1
aI1
aI1
aI1
aI1
aI1
aI1
aI1
aI1
aI1
aI1
aI1
aI1
aI1
aI1
aI1
aI1
aI1
aI1
aI1
aI1
aI1
aI1
aI1
aI1
aI1
aI1
aI1
aI1
aI1
aI1
aI1
aI1
aI1
aI1
aI1
aI1
aI1
aI1
aI1
aI1
aI1
aI1
aI1
aI1
aI1
aI1
aI1
aI1
aI1
aI1
aI1
aI1
aI1
aI1
aI1
aI1
aI1
aI1
aI1
aI1
aI1
aI1
aI1
aI1
aI1
aI1
aI1
aI1
aI1
aI1
aI1
aI1
aI1
aI1
aI1
aI1
aI1
aI1
aI1
aI1
aI1
aI1
aI1
aI1
aI1
aI1
aI1
aI1
aI1
aI1
aI1
aI1
aI1
aI1
aI1
aI1
aI1
aI1
aI1
aI1
aI1
aI1
aI1
aI1
aI1
aI1
aI1
aI1
aI1
aI1
aI1
aI1
aI1
aI1
aI1
aI1
aI1
aI1
aI1
aI1
aI1
aI1
aI1
aI1
aI1
aI1
aI1
aI1
aI1
aI1
aI1
aI1
aI1
aI1
aI1
aI1
aI1
aI1
aI1
aI1
aI1
aI1
aI1
aI1
aI1
aI1
aI1
aI1
aI1
aI1
aI1
aI1
aI1
aI1
aI1
aI1
aI1
aI1
aI1
aI1
aI1
aI1
aI1
aI1
aI1
aI1
aI1
aI1
aI1
aI1
aI1
aI1
aI1
aI1
aI1
aI1
aI1
aI1
aI1
aI1
aI1
aI1
aI1
aI1
aI1
aI1
aI1
aI1
aI1
aI1
aI1
aI1
aI1
aI1
aI1
aI1
aI1
aI1
aI1
aI1
aI1
aI1
aI1
aI1
aI1
aI1
aI1
aI1
aI1
aI1
aI1
aI1
aI1
aI1
aI1
aI1
aI1
aI1
aI1
aI1
aI1
aI1
aI1
aI1
aI1
aI1
aI1
aI1
aI1
aI1
aI1
aI1
aI1
aI1
aI1
aI1
aI1
aI1
aI1
aI1
aI1
aI1
aI1
aI1
aI1
aI1
aI1
aI1
aI1
aI1
aI1
aI1
aI1
aI1
aI1
aI1
aI1
aI1
aI1
aI1
aI1
aI1
aI1
aI1
aI1
aI1
aI1
aI1
aI1
aI1
aI1
aI1
aI1
aI1
aI1
aI1
aI1
aI1
aI1
aI1
aI1
aI1
aI1
aI1
aI1
aI1
aI1
aI1
aI1
aI1
aI1
aI1
aI1
aI1
aI1
aI1
aI1
aI1
aI1
aI1
aI1
aI1
aI1
aI1
aI1
aI1
aI1
aI1
aI1
aI1
aI1
aI1
aI1
aI1
aI1
aI1
aI1
aI1
aI1
aI1
aI1
aI1
aI1
aI1
aI1
aI1
aI1
aI1
aI1
aI1
aI1
aI1
aI1
aI1
aI1
aI1
aI1
aI1
aI1
aI1
aI1
aI1
aI1
aI1
aI1
aI1
aI1
aI1
aI1
aI1
aI1
aI1
aI1
aI1
aI1
aI1
aI1
aI1
aI1
aI1
aI1
aI1
aI1
aI1
aI1
aI1
aI1
aI1
aI1
aI1
aI1
aI1
aI1
aI1
aI1
aI1
aI1
aI1
aI1
aI1
aI1
aI1
aI1
aI1
aI1
aI1
aI1
aI1
aI1
aI1
aI1
aI1
aI1
aI1
aI1
aI1
aI1
aI1
aI1
aI1
aI1
aI1
aI1
aI1
aI1
aI1
aI1
aI1
aI1
aI1
aI1
aI1
aI1
aI1
aI1
aI1
aI1
aI1
aI1
aI1
aI1
aI1
aI1
aI1
aI1
aI1
aI1
aI1
aI1
aI1
aI1
aI1
aI1
aI1
aI1
aI1
aI1
aI1
aI1
aI1
aI1
aI1
aI1
aI1
aI1
aI1
aI1
aI1
aI1
aI1
aI1
aI1
aI1
aI1
aI1
aI1
aI1
aI1
aI1
aI1
aI1
aI1
aI1
aI1
aI1
aI1
aI1
aI1
aI1
aI1
aI1
aI1
aI1
aI1
aI1
aI1
aI1
aI1
aI1
aI1
aI1
aI1
aI1
aI1
aI1
aI1
aI1
aI1
aI1
aI1
aI1
aI1
aI1
aI1
aI1
aI1
aI1
aI1
aI1
aI1
aI1
aI1
aI1
aI1
aI1
aI1
aI1
aI1
aI1
aI1
aI1
aI1
aI1
aI1
aI1
aI1
aI1
aI1
aI1
aI1
aI1
aI1
aI1
aI1
aI1
aI1
aI1
aI1
aI1
aI1
aI1
aI1
aI1
aI1
aI1
aI1
aI1
aI1
aI1
aI1
aI1
aI1
aI1
aI1
aI1
aI1
aI1
aI1
aI1
aI1
aI1
aI1
aI1
aI1
aI1
aI1
aI1
aI1
aI1
aI1
aI1
aI1
aI1
aI1
aI1
aI1
aI1
aI1
aI1
aI1
aI1
aI1
aI1
aI1
aI1
aI1
aI1
aI1
aI1
aI1
aI1
aI1
aI1
aI1
aI1
aI1
aI1
aI1
aI1
aI1
aI1
aI1
aI1
aI1
aI1
aI1
aI1
aI1
aI1
aI1
aI1
aI1
aI1
aI1
aI1
aI1
aI1
aI1
aI1
aI1
aI1
aI1
aI1
aI1
aI1
aI1
aI1
aI1
aI1
aI1
aI1
aI1
aI1
aI1
aI1
aI1
aI1
aI1
aI1
aI1
aI1
aI1
aI1
aI1
aI1
aI1
aI1
aI1
aI1
aI1
aI1
aI1
aI1
aI1
aI1
aI1
aI1
aI1
aI1
aI1
aI1
aI1
aI1
aI1
aI1
aI1
aI1
aI1
aI1
aI1
aI1
aI1
aI1
aI1
aI1
aI1
aI1
aI1
aI1
aI1
aI1
aI1
aI1
aI1
aI1
aI1
aI1
aI1
aI1
aI1
aI1
aI1
aI1
aI1
aI1
aI1
aI1
aI1
aI1
aI1
aI1
aI1
aI1
aI1
aI1
aI1
aI1
aI1
aI1
aI1
aI1
aI1
aI1
aI1
aI1
aI1
aI1
aI1
aI1
aI1
aI1
aI1
aI1
aI1
aI1
aI1
aI1
aI1
aI1
aI1
aI1
aI1
aI1
aI1
aI1
aI1
aI1
aI1
aI1
aI1
aI1
aI1
aI1
aI1
aI1
aI1
aI1
aI1
aI1
aI1
aI1
aI1
aI1
aI1
aI1
aI1
aI1
aI1
aI1
aI1
aI1
aI1
aI1
aI1
aI1
aI1
aI1
aI1
aI1
aI1
aI1
aI1
aI1
aI1
aI1
aI1
aI1
aI1
aI1
aI1
aI1
aI1
aI1
aI1
aI1
aI1
aI1
aI1
aI1
aI1
aI1
aI1
aI1
aI1
aI1
aI1
aI1
aI1
aI1
aI1
aI1
aI1
aI1
aI1
aI1
aI1
aI1
aI1
aI1
aI1
aI1
aI1
aI1
aI1
aI1
aI1
aI1
aI1
aI1
aI1
aI1
aI1
aI1
aI1
aI1
aI1
aI1
aI1
aI1
aI1
aI1
aI1
aI1
aI1
aI1
aI1
aI1
aI1
aI1
aI1
aI1
aI1
aI1
aI1
aI1
aI1
aI1
aI1
aI1
aI1
aI1
aI1
aI1
aI1
aI1
aI1
aI1
aI1
aI1
aI1
aI1
aI1
aI1
aI1
aI1
aI1
aI1
aI1
aI1
aI1
aI1
aI1
aI1
aI1
aI1
aI1
aI1
aI1
aI1
aI1
aI1
aI1
aI1
aI1
aI1
aI1
aI1
aI1
aI1
aI1
aI1
aI1
aI1
aI1
aI1
aI1
aI1
aI1
aI1
aI1
aI1
aI1
aI1
aI1
aI1
aI1
aI1
aI1
aI1
aI1
aI1
aI1
aI1
aI1
aI1
aI1
aI1
aI1
aI1
aI1
aI1
aI1
aI1
aI1
aI1
aI1
aI1
aI1
aI1
aI1
aI1
aI1
aI1
aI1
aI1
aI1
aI1
aI1
aI1
aI1
aI1
aI1
aI1
aI1
aI1
aI1
aI1
aI1
aI1
aI1
aI1
aI1
aI1
aI1
aI1
aI1
aI1
aI1
aI1
aI1
aI1
aI1
aI1
aI1
aI1
aI1
aI1
aI1
aI1
aI1
aI1
aI1
aI1
aI1
aI1
aI1
aI1
aI1
aI1
aI1
aI1
aI1
aI1
aI1
aI1
aI1
aI1
aI1
aI1
aI1
aI1
aI1
aI1
aI1
aI1
aI1
aI1
aI1
aI1
aI1
aI1
aI1
aI1
aI1
aI1
aI1
aI1
aI1
aI1
aI1
aI1
aI1
aI1
aI1
aI1
aI1
aI1
aI1
aI1
aI1
aI1
aI1
aI1
aI1
aI1
aI1
aI1
aI1
aI1
aI1
aI1
aI1
aI1
aI1
aI1
aI1
aI1
aI1
aI1
aI1
aI1
aI1
aI1
aI1
aI1
aI1
aI1
aI1
aI1
aI1
aI1
aI1
aI1
aI1
aI1
aI1
aI1
aI1
aI1
aI1
aI1
aI1
aI1
aI1
aI1
aI1
aI1
aI1
aI1
aI1
aI1
aI1
aI1
aI1
aI1
aI1
aI1
aI1
aI1
aI1
aI1
aI1
aI1
aI1
aI1
aI1
aI1
aI1
aI1
aI1
aI1
aI1
aI1
aI1
aI1
aI1
aI1
aI1
aI1
aI1
aI1
aI1
aI1
aI1
aI1
aI1
aI1
aI1
aI1
aI1
aI1
aI1
aI1
aI1
aI1
aI1
aI1
aI1
aI1
aI1
aI1
aI1
aI1
aI1
aI1
aI1
aI1
aI1
aI1
aI1
aI1
aI1
aI1
aI1
aI1
aI1
aI1
aI1
aI1
aI1
aI1
aI1
aI1
aI1
aI1
aI1
aI1
aI1
aI1
aI1
aI1
aI1
aI1
aI1
aI1
aI1
aI1
aI1
aI1
aI1
aI1
aI1
aI1
aI1
aI1
aI1
aI1
aI1
aI1
aI1
aI1
aI1
aI1
aI1
aI1
aI1
aI1
aI1
aI1
aI1
aI1
aI1
aI1
aI1
aI1
aI1
aI1
aI1
aI1
aI1
aI1
aI1
aI1
aI1
aI1
aI1
aI1
aI1
aI1
aI1
aI1
aI1
aI1
aI1
aI1
aI1
aI1
aI1
aI1
aI1
aI1
aI1
aI1
aI1
aI1
aI1
aI1
aI1
aI1
aI1
aI1
aI1
aI1
aI1
aI1
aI1
aI1
aI1
aI1
aI1
aI1
aI1
aI1
aI1
aI1
aI1
aI1
aI1
aI1
aI1
aI1
aI1
aI1
aI1
aI1
aI1
aI1
aI1
aI1
aI1
aI1
aI1
aI1
aI1
aI1
aI1
aI1
aI1
aI1
aI1
aI1
aI1
aI1
aI1
aI1
aI1
aI1
aI1
aI1
aI1
aI1
aI1
aI1
aI1
aI1
aI1
aI1
aI1
aI1
aI1
aI1
aI1
asS'citations'
p4
(lp5
I1
aI0
aI0
aI1
aI0
aI0
aI0
aI0
aI0
aI0
aI0
aI2
aI0
aI0
aI0
aI0
aI0
aI0
aI0
aI0
aI1
aI0
aI1
aI0
aI1
aI3
aI1
aI0
aI0
aI0
aI3
aI0
aI0
aI0
aI0
aI99
aI2
aI1
aI2
aI0
aI1
aI3
aI0
aI0
aI0
aI0
aI0
aI2
aI1
aI9
aI0
aI5
aI2
aI0
aI1
aI2
aI1
aI0
aI3
aI5
aI0
aI2
aI1
aI186
aI0
aI0
aI0
aI0
aI0
aI33
aI0
aI2
aI0
aI5
aI3
aI9
aI0
aI1
aI2
aI2
aI0
aI4
aI1
aI0
aI15
aI0
aI2
aI0
aI0
aI0
aI1
aI1
aI2
aI3
aI3
aI7
aI11
aI9
aI9
aI2
aI13
aI11
aI1
aI2
aI8
aI4
aI0
aI21
aI9
aI6
aI10
aI1
aI3
aI2
aI10
aI1
aI99
aI7
aI2
aI2
aI0
aI27
aI5
aI5
aI0
aI1
aI0
aI44
aI939
aI0
aI2
aI2
aI0
aI10
aI199
aI43
aI2
aI7
aI0
aI307
aI108
aI6
aI49
aI2
aI16
aI111
aI6
aI2
aI14
aI4
aI1
aI3
aI0
aI17
aI0
aI0
aI162
aI9
aI0
aI0
aI2
aI0
aI0
aI0
aI3
aI5
aI0
aI3
aI109
aI0
aI12
aI1
aI1
aI3
aI0
aI17
aI6
aI4
aI1
aI1
aI12
aI1
aI7
aI2
aI12
aI5
aI1
aI0
aI5
aI4
aI3
aI0
aI23
aI0
aI2
aI2
aI46
aI0
aI2
aI0
aI1
aI2
aI0
aI0
aI0
aI6
aI4
aI7
aI2
aI0
aI0
aI1
aI0
aI3
aI1
aI1
aI5
aI0
aI1
aI1
aI5
aI0
aI0
aI2
aI7
aI13
aI0
aI0
aI5
aI12
aI12
aI12
aI17
aI16
aI15
aI16
aI2
aI17
aI61
aI7
aI2
aI118
aI0
aI171
aI43
aI43
aI0
aI51
aI107
aI32
aI0
aI56
aI0
aI0
aI1
aI13
aI0
aI0
aI0
aI0
aI0
aI0
aI0
aI0
aI1
aI0
aI0
aI1
aI4
aI0
aI0
aI0
aI0
aI3
aI2
aI1
aI1
aI0
aI0
aI1
aI0
aI0
aI0
aI1
aI0
aI71
aI0
aI0
aI0
aI0
aI0
aI0
aI0
aI0
aI1
aI0
aI3
aI2
aI0
aI3
aI0
aI0
aI0
aI0
aI0
aI0
aI2
aI9
aI0
aI0
aI0
aI0
aI0
aI0
aI3
aI0
aI1
aI0
aI0
aI1
aI0
aI1
aI0
aI1
aI4
aI0
aI0
aI19
aI334
aI7
aI0
aI0
aI0
aI0
aI0
aI0
aI0
aI0
aI0
aI0
aI0
aI4
aI0
aI0
aI0
aI1
aI14
aI1
aI1
aI4
aI0
aI0
aI2
aI16
aI2
aI2
aI0
aI0
aI0
aI4
aI1
aI0
aI1
aI0
aI5
aI2
aI1
aI355
aI4
aI5
aI3
aI77
aI0
aI0
aI1
aI3
aI0
aI1
aI13
aI3
aI1
aI1
aI2
aI6
aI0
aI7
aI16
aI17
aI1
aI0
aI14
aI0
aI4
aI0
aI3
aI35
aI0
aI4
aI9
aI3
aI73
aI0
aI0
aI0
aI1
aI13
aI8
aI3
aI7
aI2
aI5
aI6
aI1
aI2
aI0
aI0
aI0
aI15
aI13
aI0
aI2
aI4
aI0
aI11
aI0
aI0
aI18
aI0
aI2
aI5
aI3
aI1
aI1
aI6
aI0
aI0
aI0
aI0
aI6
aI0
aI1
aI0
aI5
aI10
aI7
aI2
aI7
aI1
aI0
aI4
aI8
aI1
aI31
aI31
aI18
aI0
aI51
aI8
aI27
aI0
aI0
aI7
aI26
aI5
aI0
aI0
aI0
aI0
aI0
aI0
aI0
aI47
aI2
aI0
aI5
aI0
aI46
aI0
aI0
aI18
aI0
aI3
aI30
aI7
aI38
aI0
aI0
aI58
aI0
aI0
aI0
aI5
aI0
aI7
aI1
aI20
aI0
aI12
aI0
aI11
aI0
aI0
aI2
aI26
aI10
aI12
aI0
aI3
aI3
aI0
aI1
aI2
aI24
aI32
aI9
aI5
aI17
aI22
aI6
aI0
aI3
aI17
aI7
aI12
aI35
aI21
aI86
aI18
aI13
aI50
aI9
aI0
aI13
aI12
aI3
aI9
aI13
aI7
aI19
aI43
aI11
aI31
aI5
aI49
aI24
aI64
aI7
aI104
aI20
aI110
aI3
aI7
aI33
aI6
aI225
aI150
aI0
aI0
aI144
aI57
aI18
aI65
aI13
aI15
aI2
aI569
aI2
aI66
aI37
aI9
aI9
aI5
aI7
aI8
aI74
aI1
aI13
aI1
aI8
aI3
aI20
aI7
aI1
aI78
aI47
aI17
aI16
aI34
aI0
aI9
aI0
aI206
aI0
aI0
aI204
aI1
aI1
aI0
aI1
aI6
aI1
aI23
aI0
aI1
aI0
aI0
aI5
aI7
aI13
aI3
aI1
aI4
aI1
aI3
aI0
aI0
aI0
aI0
aI0
aI0
aI1
aI2121
aI0
aI0
aI0
aI0
aI2
aI0
aI1
aI0
aI0
aI0
aI1
aI0
aI0
aI0
aI0
aI0
aI3
aI1
aI0
aI1
aI0
aI2
aI4
aI1
aI1
aI0
aI1
aI0
aI0
aI0
aI1
aI2
aI1
aI2
aI1
aI3
aI0
aI0
aI0
aI2
aI1
aI1
aI0
aI1
aI0
aI3
aI0
aI0
aI4
aI1
aI1
aI2
aI2
aI3
aI3
aI9
aI1
aI7
aI0
aI0
aI0
aI0
aI1
aI1
aI0
aI1
aI2
aI3
aI0
aI4
aI6
aI10
aI0
aI4
aI1
aI9
aI0
aI3
aI8
aI13
aI32
aI1
aI1
aI0
aI6
aI2
aI5
aI1
aI6
aI3
aI2
aI6
aI10
aI7
aI8
aI1
aI1
aI1
aI3
aI0
aI0
aI3
aI1
aI5
aI0
aI3
aI1
aI0
aI4
aI0
aI3
aI0
aI0
aI1
aI44
aI2
aI21
aI0
aI5
aI0
aI5
aI0
aI0
aI6
aI0
aI5
aI123
aI37
aI0
aI0
aI0
aI11
aI2
aI1
aI10
aI0
aI454
aI0
aI0
aI0
aI0
aI0
aI0
aI0
aI0
aI0
aI0
aI0
aI0
aI308
aI0
aI1
aI4
aI0
aI0
aI0
aI0
aI0
aI0
aI1
aI1
aI0
aI0
aI0
aI0
aI0
aI0
aI0
aI0
aI3
aI0
aI0
aI0
aI0
aI2
aI0
aI1
aI1
aI3
aI6
aI0
aI0
aI0
aI0
aI7
aI1
aI2
aI0
aI0
aI0
aI0
aI9
aI0
aI7
aI1
aI1
aI27
aI1
aI1
aI0
aI0
aI0
aI0
aI0
aI4
aI3
aI5
aI0
aI0
aI2
aI0
aI0
aI2
aI11
aI0
aI3
aI11
aI14
aI10
aI0
aI3
aI0
aI4
aI37
aI0
aI325
aI3
aI2
aI0
aI1
aI2
aI0
aI1
aI1
aI0
aI14
aI2
aI8
aI4
aI4
aI3
aI3
aI6
aI0
aI2
aI4
aI16
aI21
aI2
aI2
aI0
aI3
aI4
aI0
aI12
aI0
aI0
aI0
aI2
aI0
aI5
aI1
aI3
aI5
aI16
aI0
aI272
aI73
aI17
aI7
aI1
aI0
aI11
aI6
aI12
aI1
aI1
aI12
aI2
aI1
aI1
aI0
aI0
aI0
aI5
aI12
aI0
aI3
aI25
aI0
aI7
aI14
aI0
aI9
aI5
aI0
aI38
aI15
aI4
aI0
aI31
aI45
aI0
aI0
aI0
aI21
aI2
aI0
aI9
aI5
aI5
aI0
aI0
aI14
aI10
aI2
aI10
aI5
aI24
aI8
aI4
aI7
aI36
aI14
aI2
aI32
aI3
aI45
aI0
aI0
aI3
aI6
aI3
aI1
aI8
aI3
aI2
aI11
aI3
aI6
aI29
aI10
aI0
aI0
aI685
aI4
aI0
aI11
aI6
aI7
aI27
aI2
aI2
aI0
aI9
aI0
aI1
aI5
aI2
aI53
aI135
aI6
aI0
aI25
aI0
aI17
aI38
aI1
aI2
aI19
aI0
aI15
aI4
aI3
aI24
aI20
aI20
aI6
aI5
aI7
aI6
aI2
aI27
aI2
aI76
aI57
aI290
aI10
aI0
aI16
aI5
aI0
aI48
aI0
aI3
aI13
aI10
aI26
aI0
aI0
aI0
aI0
aI0
aI139
aI0
aI0
aI1
aI0
aI0
aI1
aI0
aI0
aI0
aI0
aI0
aI0
aI0
aI0
aI0
aI7
aI0
aI0
aI0
aI0
aI0
aI0
aI0
aI0
aI0
aI0
aI0
aI0
aI0
aI2
aI0
aI0
aI0
aI0
aI0
aI0
aI0
aI0
aI0
aI0
aI0
aI1
aI0
aI2
aI1
aI2
aI0
aI0
aI0
aI0
aI0
aI0
aI0
aI0
aI0
aI1
aI0
aI0
aI1
aI0
aI0
aI0
aI0
aI0
aI0
aI1
aI0
aI0
aI1
aI1
aI4
aI2
aI0
aI0
aI1
aI0
aI0
aI0
aI0
aI1
aI1
aI0
aI0
aI0
aI8
aI0
aI0
aI1
aI0
aI0
aI1
aI0
aI16
aI0
aI0
aI2
aI0
aI325
aI0
aI3
aI0
aI0
aI2
aI0
aI5
aI0
aI4
aI8
aI2
aI2
aI1
aI2
aI9
aI0
aI0
aI1
aI1
aI1
aI3
aI2
aI11
aI0
aI0
aI0
aI4
aI0
aI0
aI0
aI11
aI6
aI1
aI0
aI0
aI0
aI0
aI4
aI0
aI4
aI1
aI24
aI1
aI1
aI0
aI9
aI0
aI1
aI0
aI0
aI0
aI1
aI0
aI1
aI0
aI0
aI2
aI0
aI0
aI14
aI0
aI0
aI0
aI2
aI1
aI0
aI3
aI11
aI3
aI3
aI8
aI2
aI70
aI1
aI5
aI0
aI0
aI4
aI3
aI0
aI1
aI747
aI0
aI2
aI0
aI3
aI0
aI14
aI6
aI10
aI1
aI1
aI0
aI0
aI1
aI0
aI1
aI6
aI2
aI1
aI3
aI0
aI2
aI2
aI10
aI1
aI0
aI3
aI1
aI0
aI0
aI43
aI0
aI0
aI0
aI3
aI0
aI145
aI5
aI0
aI4
aI0
aI0
aI1
aI1
aI0
aI2
aI0
aI14
aI29
aI17
aI6
aI1
aI2
aI1
aI0
aI5
aI3
aI3
aI18
aI0
aI6
aI7
aI5
aI3
aI1
aI3
aI2
aI2
aI4
aI1
aI0
aI4
aI0
aI32
aI1
aI17
aI0
aI0
aI1
aI7
aI1
aI4
aI0
aI2
aI724
aI2
aI0
aI1
aI0
aI4
aI0
aI0
aI4
aI0
aI1
aI17
aI3
aI0
aI7
aI0
aI9
aI1
aI5
aI0
aI6
aI3
aI7
aI8
aI2
aI0
aI198
aI1
aI15
aI2
aI0
aI17
aI48
aI0
aI2
aI21
aI3
aI0
aI0
aI6
aI0
aI11
aI0
aI2
aI7
aI0
aI0
aI5
aI0
aI5
aI2
aI27
aI6
aI0
aI0
aI22
aI1
aI1
aI0
aI5
aI19
aI4
aI10
aI2
aI1
aI45
aI7
aI2
aI0
aI2
aI4
aI4
aI0
aI0
aI4
aI11
aI11
aI0
aI3
aI3
aI0
aI6
aI5
aI25
aI14
aI1
aI1
aI14
aI686
aI15
aI4
aI4
aI28
aI0
aI2
aI4
aI1
aI0
aI1
aI6
aI99
aI1
aI0
aI175
aI0
aI248
aI0
aI3
aI0
aI0
aI0
aI2
aI0
aI169
aI9
aI0
aI0
aI8
aI10
aI2
aI20
aI0
aI1
aI0
aI0
aI1
aI24
aI24
aI0
aI2
aI29
aI4
aI5
aI1
aI0
aI1208
aI0
aI19
aI7
aI2
aI0
aI0
aI8
aI0
aI11
aI1
aI0
aI0
aI0
aI0
aI1
aI4
aI8
aI56
aI9
aI2
aI16
aI7
aI54
aI43
aI4
aI13
aI0
aI13
aI16
aI0
aI731
aI731
aI21
aI12
aI9
aI1
aI18
aI6
aI118
aI14
aI0
aI8
aI3
aI2
aI0
aI4
aI8
aI117
aI52
aI107
aI57
aI950
aI0
aI0
aI6
aI1
aI0
aI0
aI0
aI3
aI0
aI0
aI13
aI0
aI0
aI3
aI0
aI0
aI0
aI0
aI0
aI0
aI3
aI1
aI1
aI1
aI9
aI2
aI1
aI0
aI6
aI0
aI0
aI2
aI1
aI10
aI3
aI8
aI0
aI1
aI1
aI3
aI2
aI5
aI0
aI11
aI22
aI1
aI9
aI81
aI5
aI9
aI1
aI14
aI17
aI1
aI4
aI7
aI0
aI0
aI34
aI2
aI127
aI1
aI13
aI141
aI6
aI12
aI6
aI0
aI54
aI5
aI8
aI1
aI25
aI1
aI0
aI6
aI89
aI0
aI0
aI0
aI3
aI0
aI1
aI0
aI0
aI0
aI0
aI1
aI0
aI0
aI0
aI0
aI0
aI0
aI0
aI0
aI0
aI0
aI0
aI0
aI0
aI0
aI0
aI0
aI0
aI1
aI1
aI0
aI2
aI0
aI0
aI2
aI1
aI43
aI1
aI0
aI0
aI0
aI0
aI3
aI2
aI0
aI0
aI1
aI0
aI0
aI0
aI32
aI16
aI0
aI0
aI5
aI0
aI1
aI0
aI0
aI0
aI6
aI0
aI1
aI1
aI1
aI5
aI26
aI1
aI1
aI0
aI0
aI1
aI0
aI0
aI3
aI0
aI0
aI1
aI0
aI2
aI1
aI0
aI0
aI8
aI0
aI1
aI3
aI5
aI15
aI0
aI0
aI0
aI7
aI19
aI6
aI1
aI2
aI3
aI0
aI2
aI5
aI3
aI12
aI5
aI3
aI7
aI5
aI5
aI9
aI9
aI4
aI1
aI8
aI0
aI0
aI2
aI11
aI3
aI0
aI0
aI0
aI6
aI1
aI4
aI0
aI7
aI365
aI1
aI3
aI23
aI0
aI39
aI0
aI8
aI1
aI1
aI2
aI3
aI0
aI0
aI1
aI1
aI2
aI1
aI26
aI12
aI0
aI5
aI3
aI3
aI0
aI1
aI0
aI2
aI1
aI0
aI0
aI24
aI12
aI9
aI1
aI0
aI0
aI0
aI12
aI1
aI0
aI34
aI8
aI16
aI33
aI6
aI5
aI13
aI23
aI2
aI2
aI105
aI1
aI0
aI8
aI9
aI1
aI0
aI0
aI5
aI12
aI6
aI2
aI1
aI2
aI0
aI33
aI8
aI8
aI0
aI146
aI0
aI24
aI6
aI13
aI3
aI1
aI34
aI12
aI4
aI46
aI5
aI0
aI72
aI113
aI8
aI22
aI3
aI19
aI8
aI2827
aI0
aI1
aI2
aI3
aI62
aI0
aI0
aI4
aI0
aI11
aI0
aI2
aI34
aI1
aI5
aI1
aI0
aI0
aI0
aI6
aI15
aI0
aI0
aI8
aI91
aI0
aI0
aI8
aI13
aI0
aI7
aI0
aI1
aI3
aI0
aI120
aI2
aI16
aI16
aI0
aI0
aI1
aI3
aI1
aI0
aI14
aI45
aI11
aI1
aI23
aI0
aI11
aI11
aI58
aI759
aI0
aI0
aI36
aI22
aI2
aI107
aI0
aI0
aI2
aI64
aI12
aI4
aI299
aI0
aI29
aI5
aI7
aI31
aI1
aI7
aI2
aI0
aI2
aI71
aI1
aI0
aI0
aI2
aI421
aI2
aI0
aI4
aI0
aI25
aI0
aI7
aI11
aI106
aI0
aI74
aI0
aI2
aI0
aI1
aI21
aI35
aI0
aI7
aI11
aI11
aI11
aI0
aI18
aI426
aI2
aI25
aI1021
aI710
aI11
aI0
aI0
aI19
aI3
aI0
aI0
aI492
aI254
aI414
aI0
aI13
aI32
aI11
aI3
aI46
aI16
aI0
aI15
aI10
aI66
aI0
aI0
aI64
aI0
aI306
aI379
aI0
aI0
aI31
aI0
aI0
aI96
aI0
aI0
aI0
aI0
aI0
aI0
aI140
aI0
aI0
aI0
aI0
aI0
aI1
aI0
aI0
aI1
aI0
aI1
aI1
aI0
aI0
aI0
aI0
aI0
aI0
aI0
aI3
aI0
aI0
aI7
aI1
aI0
aI0
aI1022
aI0
aI1
aI0
aI0
aI0
aI0
aI1
aI0
aI0
aI0
aI0
aI0
aI0
aI0
aI1
aI1
aI3
aI0
aI0
aI0
aI0
aI2
aI0
aI0
aI0
aI0
aI0
aI0
aI0
aI0
aI0
aI1
aI0
aI2
aI1
aI1
aI0
aI0
aI0
aI0
aI0
aI0
aI0
aI0
aI0
aI0
aI1
aI0
aI0
aI0
aI0
aI1
aI0
aI0
aI0
aI0
aI0
aI1
aI0
aI0
aI0
aI3
aI2
aI3
aI0
aI17
aI1
aI2
aI0
aI1
aI0
aI0
aI0
aI0
aI1
aI0
aI0
aI0
aI0
aI0
aI0
aI1
aI1
aI0
aI0
aI0
aI0
aI0
aI0
aI1
aI0
aI0
aI0
aI0
aI0
aI1
aI0
aI0
aI1
aI3
aI0
aI0
aI1
aI0
aI0
aI0
aI0
aI0
aI2
aI2
aI1
aI0
aI0
aI0
aI0
aI0
aI0
aI0
aI5942
aI0
aI0
aI1
aI0
aI0
aI0
aI0
aI2
aI0
aI2
aI1
aI1
aI2
aI0
aI2
aI0
aI0
aI0
aI1
aI3
aI1
aI3
aI0
aI0
aI0
aI2
aI0
aI0
aI0
aI0
aI0
aI0
aI0
aI33
aI0
aI0
aI0
aI0
aI0
aI1
aI1
aI0
aI0
aI4
aI4
aI0
aI0
aI1
aI0
aI0
aI1
aI5
aI1
aI0
aI0
aI0
aI0
aI0
aI0
aI2
aI0
aI0
aI0
aI0
aI0
aI0
aI4
aI1
aI1
aI0
aI0
aI0
aI0
aI8
aI2
aI0
aI7
aI0
aI2
aI1
aI2
aI2
aI0
aI0
aI1
aI1
aI4
aI10
aI7
aI4
aI18
aI2
aI6
aI1
aI0
aI1
aI5
aI1
aI1
aI5
aI6
aI8
aI2
aI0
aI6
aI13
aI2
aI6
aI0
aI0
aI0
aI17
aI16
aI5
aI14
aI19
aI4
aI0
aI36
aI0
aI1
aI4
aI2
aI0
aI8
aI10
aI4
aI0
aI14
aI17
aI0
aI7
aI2
aI1
aI2
aI0
aI0
aI19
aI0
aI4
aI0
aI0
aI1
aI0
aI29
aI0
aI52
aI0
aI18
aI0
aI0
aI1
aI0
aI0
aI0
aI2
aI0
aI11
aI0
aI12
aI17
aI28
aI24
aI23
aI2
aI11
aI31
aI31
aI0
aI1
aI0
aI4
aI4
aI25
aI16
aI3
aI1
aI0
aI3
aI0
aI0
aI0
aI0
aI6
aI26
aI299
aI4
aI4
aI2
aI200
aI0
aI1
aI14
aI14
aI2
aI2
aI686
aI0
aI4
aI0
aI1
aI10
aI2
aI29
aI0
aI7
aI7
aI30
aI8
aI82
aI1
aI45
aI0
aI0
aI9
aI0
aI9
aI0
aI155
aI6
aI6
aI3
aI0
aI6
aI4
aI6
aI39
aI36
aI1208
aI29
aI19
aI65
aI19
aI5
aI17
aI5
aI14
aI7
aI46
aI8
aI12
aI29
aI36
aI56
aI2
aI2
aI18
aI40
aI26
aI0
aI0
aI2
aI141
aI4
aI12
aI11
aI16
aI80
aI9
aI85
aI12
aI19
aI19
aI19
aI9
aI0
aI43
aI13
aI50
aI58
aI21
aI20
aI32
aI31
aI15
aI2
aI10
aI74
aI1
aI20
aI78
aI16
aI47
aI2
aI16
aI4
aI4
aI9
aI0
aI0
aI0
aI0
aI0
aI0
aI0
aI5
aI1
aI0
aI1
aI0
aI0
aI3
aI0
aI1
aI0
aI0
aI0
aI0
aI0
aI0
aI0
aI1
aI1
aI0
aI5
aI0
aI0
aI0
aI0
aI0
aI0
aI0
aI0
aI0
aI0
aI1
aI1
aI0
aI0
aI1
aI0
aI1
aI0
aI0
aI5
aI0
aI0
aI0
aI0
aI15
aI13
aI7
aI1
aI2
aI747
aI2
aI3
aI10
aI3
aI2
aI1
aI1
aI6
aI6
aI1
aI0
aI2
aI2
aI1
aI0
aI0
aI43
aI0
aI3
aI0
aI0
aI145
aI2
aI0
aI2
aI17
aI0
aI0
aI5
aI52
aI1
aI4
aI0
aI0
aI335
aI335
aI1
aI0
aI0
aI1
aI0
aI3
aI2
aI0
aI2
aI1
aI0
aI0
aI0
aI0
aI4
aI0
aI2
aI1
aI0
aI21
aI3778
aI17
aI0
aI10
aI6
aI3
aI2
aI198
aI1
aI11
aI0
aI4
aI17
aI48
aI2
aI29
aI1
aI1
aI6
aI2
aI1
aI0
aI4
aI0
aI0
aI0
aI0
aI0
aI0
aI0
aI0
aI0
aI0
aI0
aI0
aI0
aI0
aI0
aI99
aI0
aI4
aI476
aI0
aI0
aI1
aI0
aI1
aI3
aI1
aI2
aI2
aI2
aI4
aI0
aI6
aI8
aI20
aI9
aI3
aI17
aI2
aI13
aI9
aI3
aI51
aI2
aI37
aI22
aI0
aI14
aI40
aI10
aI12
aI0
aI2
aI52
aI57
aI0
aI0
aI0
aI0
aI0
aI5
aI0
aI1
aI3
aI0
aI0
aI1
aI1
aI3
aI1
aI17
aI4
aI1
aI0
aI0
aI2
aI2
aI0
aI0
aI0
aI1
aI1
aI1
aI1246
aI0
aI0
aI0
aI27
aI1
aI0
aI60
aI1
aI2
aI0
aI0
aI0
aI0
aI3
aI0
aI0
aI0
aI4
aI0
aI1
aI328
aI0
aI0
aI0
aI1
aI0
aI2
aI1
aI1
aI0
aI0
aI10
aI0
aI0
aI1
aI0
aI1
aI1
aI0
aI5
aI1
aI0
aI1
aI0
aI9
aI2
aI10
aI0
aI135
aI6
aI0
aI2
aI0
aI0
aI1
aI0
aI2
aI0
aI0
aI0
aI0
aI1
aI0
aI3
aI0
aI0
aI0
aI1
aI0
aI0
aI0
aI0
aI0
aI0
aI0
aI0
aI0
aI0
aI0
aI0
aI0
aI0
aI0
aI0
aI1
aI2
aI0
aI0
aI0
aI0
aI0
aI0
aI0
aI3
aI0
aI0
aI0
aI0
aI0
aI0
aI0
aI1
aI0
aI1
aI0
aI0
aI0
aI0
aI0
aI0
aI1
aI3
aI4
aI0
aI4
aI0
aI2
aI0
aI0
aI0
aI1
aI0
aI1
aI0
aI0
aI0
aI0
aI26
aI0
aI0
aI5
aI0
aI0
aI0
aI0
aI2
aI0
aI0
aI0
aI0
aI0
aI0
aI2
aI0
aI0
aI0
aI0
aI5
aI0
aI0
aI2
aI3
aI5
aI2
aI0
aI0
aI0
aI0
aI0
aI0
aI0
aI1
aI0
aI2
aI25
aI0
aI4
aI0
aI2
aI0
aI0
aI0
aI0
aI5
aI0
aI10
aI0
aI0
aI1
aI0
aI1
aI1
aI2
aI166
aI9
aI9
aI1
aI2
aI0
aI0
aI0
aI1
aI1
aI2
aI0
aI0
aI1
aI3
aI1
aI0
aI0
aI0
aI3
aI1
aI2
aI0
aI0
aI2
aI1
aI0
aI0
aI1
aI3
aI1
aI0
aI1
aI1
aI0
aI6
aI2
aI4
aI0
aI1
aI1
aI5
aI4
aI4
aI2
aI6
aI0
aI1
aI3
aI0
aI1
aI0
aI0
aI2
aI1
aI0
aI3
aI1
aI6
aI0
aI1
aI0
aI0
aI2
aI0
aI0
aI1
aI8
aI2
aI0
aI2
aI2
aI2
aI10
aI1
aI0
aI9
aI0
aI0
aI3
aI0
aI0
aI0
aI0
aI4
aI0
aI5
aI1
aI0
aI140
aI0
aI12
aI0
aI1
aI1
aI0
aI0
aI1
aI3
aI0
aI2
aI9
aI2
aI10
aI5
aI21
aI7
aI0
aI2
aI1
aI10
aI1
aI0
aI0
aI2
aI0
aI8
aI16
aI3
aI0
aI10
aI6
aI0
aI0
aI12
aI13
aI1
aI35
aI0
aI18
aI0
aI5
aI3
aI2
aI12
aI1
aI1
aI18
aI4
aI6
aI5
aI7
aI28
aI0
aI51
aI10
aI7
aI7
aI3
aI17
aI0
aI8
aI4
aI15
aI18
aI5
aI4
aI7
aI4
aI2
aI0
aI54
aI27
aI22
aI10
aI12
aI0
aI35
aI30
aI38
aI3
aI57
aI23
aI6
aI1
aI11
aI7
aI27
aI22
aI16
aI6
aI2
aI0
aI20
aI28
aI8
aI33
aI6
aI10
aI10
aI4
aI6
aI8
aI0
aI49
aI1
aI6
aI5
aI291
aI0
aI0
aI2
aI30
aI7
aI71
aI30
aI9
aI27
aI25
aI9
aI19
aI64
aI110
aI69
aI31
aI4
aI0
aI0
aI0
aI0
aI0
aI0
aI6
aI1
aI6
aI0
aI1
aI0
aI6
aI0
aI1
aI0
aI0
aI1
aI0
aI1
aI2
aI3
aI0
aI0
aI0
aI8
aI3
aI2
aI3
aI15
aI4
aI2
aI1
aI0
aI1
aI3
aI1
aI0
aI1
aI0
aI0
aI17
aI8
aI0
aI0
aI20
aI20
aI0
aI0
aI5
aI11
aI0
aI14
aI14
aI1
aI14
aI0
aI8
aI0
aI32
aI17
aI89
aI10
aI42
aI0
aI0
aI641
aI4
aI11
aI199
aI2
aI0
aI0
aI0
aI0
aI0
aI0
aI0
aI1
aI3
aI1
aI0
aI1
aI6
aI0
aI0
aI0
aI0
aI0
aI1
aI2
aI0
aI0
aI0
aI0
aI5
aI4
aI1
aI0
aI1
aI1
aI3
aI4
aI0
aI1
aI1
aI0
aI0
aI0
aI0
aI0
aI0
aI0
aI0
aI0
aI0
aI0
aI0
aI0
aI0
aI0
aI0
aI1
aI3
aI4
aI0
aI0
aI1
aI0
aI26
aI0
aI0
aI0
aI0
aI0
aI0
aI0
aI0
aI0
aI1
aI3
aI5
aI0
aI2
aI2
aI0
aI11
aI0
aI7
aI8
aI4
aI15
aI1
aI0
aI0
aI4
aI4
aI2
aI7
aI1
aI0
aI0
aI4
aI4
aI13
aI0
aI15
aI0
aI5
aI1
aI0
aI2
aI1
aI1
aI0
aI0
aI0
aI2
aI22
aI33
aI11
aI16
aI40
aI3
aI2
aI1
aI0
aI55
aI0
aI12
aI7
aI3
aI3
aI5
aI0
aI0
aI1
aI15
aI9
aI77
aI6
aI9
aI3
aI22
aI0
aI0
aI0
aI0
aI79
aI0
aI14
aI9
aI4
aI14
aI1
aI21
aI4
aI22
aI8
aI15
aI14
aI11
aI0
aI7
aI0
aI1
aI0
aI3
aI20
aI0
aI21
aI39
aI12
aI2
aI9
aI37
aI2
aI6
aI41
aI2
aI4
aI2
aI0
aI17
aI18
aI54
aI1
aI13
aI15
aI8
aI4
aI7
aI0
aI0
aI46
aI46
aI24
aI28
aI9
aI2
aI43
aI0
aI48
aI7
aI0
aI2
aI75
aI53
aI53
aI6
aI0
aI10
aI14
aI39
aI2
aI10
aI24
aI26
aI28
aI14
aI50
aI4
aI43
aI12
aI0
aI19
aI184
aI8
aI3
aI316
aI2
aI3
aI9
aI62
aI40
aI22
aI43
aI19
aI56
aI21
aI7
aI0
aI1
aI1
aI0
aI0
aI1
aI0
aI1
aI0
aI1
aI2
aI0
aI0
aI2
aI1
aI1
aI2
aI3
aI0
aI0
aI4
aI0
aI5
aI5
aI1
aI1
aI0
aI2
aI0
aI10
aI4
aI1
aI0
aI0
aI0
aI0
aI0
aI3
aI15
aI23
aI13
aI23
aI9
aI0
aI3
aI0
aI35
aI7
aI327
aI1
aI41
aI8
aI64
aI24
aI25
aI19
aI19
aI29
aI0
aI43
aI11
aI6
aI64
aI69
aI50
aI1
aI0
aI0
aI1
aI0
aI0
aI0
aI2
aI0
aI10
aI8
aI2
aI0
aI0
aI0
aI0
aI2
aI4
aI3
aI19
aI0
aI0
aI0
aI0
aI0
aI4
aI0
aI3
aI2
aI0
aI0
aI9
aI0
aI3
aI4
aI0
aI1
aI1
aI0
aI0
aI2
aI6
aI15
aI9
aI0
aI3
aI0
aI28
aI2
aI1
aI6
aI19
aI688
aI0
aI0
aI0
aI0
aI0
aI1
aI356
aI0
aI0
aI95
aI1
aI0
aI32
aI0
aI0
aI0
aI0
aI0
aI0
aI0
aI980
aI1
aI53
aI12
aI5
aI53
aI0
aI266
aI0
aI0
aI0
aI0
aI140
aI0
aI0
aI0
aI1
aI0
aI0
aI0
aI0
aI0
aI0
aI2
aI0
aI1
aI0
aI0
aI0
aI0
aI0
aI0
aI0
aI0
aI0
aI0
aI0
aI4
aI1
aI3
aI2
aI0
aI1
aI0
aI4
aI0
aI2
aI0
aI0
aI0
aI0
aI0
aI2
aI0
aI1
aI1
aI0
aI0
aI1
aI2
aI0
aI0
aI0
aI3
aI0
aI0
aI0
aI2
aI2
aI0
aI5
aI0
aI9
aI1
aI4
aI6
aI1
aI4
aI3
aI1
aI7
aI7
aI2
aI4
aI1
aI5
aI5
aI0
aI0
aI8
aI8
aI10
aI1
aI0
aI5
aI14
aI3
aI1
aI3
aI0
aI325
aI3
aI2
aI16
aI15
aI0
aI0
aI4
aI5
aI10
aI2
aI2
aI0
aI1
aI31
aI1
aI5
aI0
aI1
aI1
aI0
aI19
aI1
aI6
aI15
aI17
aI18
aI1
aI10
aI13
aI2
aI13
aI0
aI15
aI1
aI2
aI6
aI8
aI0
aI12
aI0
aI1
aI19
aI0
aI11
aI29
aI0
aI2
aI0
aI0
aI0
aI1
aI5
aI22
aI0
aI0
aI4
aI5
aI17
aI2
aI2
aI70
aI22
aI54
aI54
aI10
aI2
aI2
aI0
aI19
aI0
aI0
aI2
aI0
aI9
aI10
aI27
aI1
aI8
aI8
aI0
aI2
aI30
aI97
aI33
aI2
aI0
aI0
aI7
aI0
aI36
aI0
aI11
aI4
aI7
aI1
aI13
aI12
aI0
aI0
aI30
aI62
aI2
aI7
aI75
aI53
aI53
aI71
aI1
aI22
aI41
aI8
aI2
aI0
aI0
aI261
aI0
aI0
aI0
aI0
aI0
aI22
aI0
aI0
aI0
aI0
aI1
aI3
aI0
aI0
aI2
aI0
aI379
aI0
aI0
aI46
aI0
aI0
aI1482
aI1482
aI0
aI0
aI0
aI1
aI8
aI0
aI0
aI0
aI0
aI2
aI0
aI2
aI0
aI7
aI0
aI111
aI0
aI0
aI0
aI0
aI0
aI0
aI39
aI0
aI3
aI2
aI14
aI4
aI0
aI4
aI2
aI2
aI0
aI0
aI1
aI4
aI93
aI215
aI2
aI0
aI2
aI1
aI0
aI3
aI0
aI5
aI1
aI0
aI9
aI49
aI0
aI5
aI0
aI29
aI45
aI3
aI8
aI1
aI8
aI0
aI1
aI0
aI3
aI3
aI8
aI14
aI13
aI0
aI0
aI4
aI7
aI0
aI2
aI0
aI1
aI6
aI0
aI2
aI4
aI1
aI2
aI14
aI14
aI6
aI4
aI4
aI0
aI0
aI24
aI4
aI9
aI7
aI14
aI11
aI2
aI19
aI0
aI8
aI4
aI14
aI19
aI0
aI1
aI0
aI17
aI7
aI1
aI23
aI6
aI1
aI3
aI23
aI6
aI3
aI2
aI1
aI4
aI1
aI7
aI225
aI2
aI1
aI0
aI0
aI3
aI10
aI7
aI4
aI0
aI8
aI7
aI2
aI2
aI2
aI0
aI23
aI6
aI57
aI2
aI130
aI99
aI0
aI15
aI26
aI3
aI9
aI0
aI2
aI2
aI2
aI5
aI0
aI0
aI0
aI0
aI0
aI0
aI1
aI0
aI0
aI0
aI0
aI0
aI1
aI0
aI0
aI1
aI1
aI0
aI2
aI1
aI1
aI0
aI2
aI0
aI0
aI1
aI0
aI1
aI0
aI0
aI0
aI0
aI0
aI2
aI0
aI1
aI1
aI0
aI0
aI0
aI0
aI4
aI0
aI0
aI0
aI6
aI1
aI0
aI0
aI1
aI0
aI4
aI16
aI2
aI3
aI0
aI0
aI1
aI3
aI14
aI15
aI44
aI6
aI6
aI2
aI2
aI6
aI7
aI0
aI41
aI41
aI15
aI0
aI36
aI32
aI14
aI4
aI18
aI17
aI10
aI0
aI3
aI17
aI5
aI0
aI75
aI0
aI0
aI1
aI0
aI0
aI0
aI0
aI0
aI1
aI5
aI0
aI0
aI0
aI0
aI0
aI0
aI0
aI0
aI1
aI0
aI0
aI0
aI0
aI0
aI14
aI0
aI0
aI0
aI1
aI2
aI0
aI5
aI3
aI0
aI0
aI1
aI0
aI4379
aI1
aI0
aI0
aI307
aI0
aI8
aI0
aI4
aI4
aI0
aI1
aI3
aI0
aI0
aI1
aI29
aI0
aI0
aI0
aI0
aI0
aI6
aI1
aI0
aI2
aI2
aI0
aI0
aI0
aI0
aI0
aI6
aI0
aI5
aI3
aI5
aI1
aI11
aI0
aI0
aI2
aI0
aI2
aI0
aI15
aI7
aI8
aI4
aI4
aI0
aI0
aI0
aI39
aI0
aI1
aI0
aI1
aI0
aI1
aI8
aI4
aI6
aI2
aI1
aI60
aI5
aI16
aI1
aI1
aI9
aI0
aI0
aI0
aI0
aI6
aI93
aI5
aI18
aI1
aI2
aI0
aI0
aI16
aI6
aI1
aI0
aI0
aI4
aI4
aI0
aI1
aI1
aI1
aI3
aI0
aI0
aI2
aI0
aI5
aI0
aI0
aI0
aI0
aI0
aI4
aI3
aI33
aI23
aI21
aI0
aI1
aI2
aI0
aI1
aI1
aI3
aI16
aI5
aI0
aI1
aI6
aI2
aI12
aI2
aI1
aI0
aI0
aI0
aI2
aI1
aI4
aI3
aI3
aI0
aI0
aI2
aI4320
aI5
aI3
aI359
aI0
aI0
aI2
aI8
aI57
aI57
aI0
aI8
aI492
aI0
aI0
aI1
aI0
aI1
aI0
aI4
aI5
aI5
aI4
aI231
aI0
aI0
aI3
aI0
aI4
aI0
aI0
aI0
aI0
aI0
aI4
aI13
aI24
aI1144
aI30
aI6
aI2
aI26
aI1
aI0
aI59
aI59
aI6
aI15
aI0
aI1
aI0
aI14
aI2
aI2
aI2
aI3
aI5
aI15
aI7
aI0
aI20
aI2
aI29
aI37
aI23
aI115
aI0
aI11
aI0
aI1
aI9
aI2
aI0
aI17
aI19
aI3
aI7
aI23
aI0
aI13
aI0
aI0
aI78
aI0
aI16
aI25
aI0
aI2
aI49
aI57
aI8
aI11
aI0
aI1
aI306
aI253
aI0
aI0
aI0
aI0
aI1
aI1
aI0
aI0
aI0
aI1
aI0
aI0
aI0
aI0
aI0
aI2
aI2
aI0
aI0
aI0
aI0
aI2
aI0
aI0
aI0
aI3
aI0
aI0
aI0
aI0
aI4
aI2
aI0
aI0
aI0
aI5
aI2
aI0
aI5
aI1
aI1
aI0
aI1
aI3
aI3
aI37
aI2
aI4
aI4
aI3
aI3
aI3
aI1
aI0
aI2
aI3
aI0
aI3
aI4
aI1
aI0
aI1
aI0
aI0
aI5
aI0
aI1
aI1
aI0
aI4
aI4
aI5
aI0
aI10
aI35
aI0
aI2
aI26
aI3
aI1
aI3
aI1
aI5
aI2
aI11
aI1
aI1
aI6
aI0
aI0
aI1
aI0
aI2
aI0
aI93
aI0
aI0
aI0
aI4
aI4
aI0
aI2
aI11
aI2
aI0
aI3
aI0
aI2
aI5
aI3
aI6
aI7
aI0
aI0
aI0
aI17
aI0
aI4
aI0
aI0
aI6
aI12
aI6
aI5
aI1
aI0
aI0
aI0
aI3
aI8
aI5
aI4
aI0
aI9
aI0
aI2
aI0
aI0
aI0
aI7
aI3
aI0
aI0
aI11
aI0
aI62
aI44
aI0
aI0
aI0
aI11
aI10
aI0
aI0
aI1
aI15
aI0
aI0
aI400
aI512
aI0
aI56
aI189
aI0
aI5743
aI0
aI13
aI142
aI255
aI21
aI0
aI49
aI2741
aI630
aI0
aI256
aI0
aI1717
aI0
aI0
aI4280
aI970
aI631
aI0
aI240
aI0
aI146
aI26
aI156
aI212
aI5
aI0
aI7
aI0
aI10
aI19
aI2
aI1
aI173
aI9
aI23
aI0
aI5
aI16
aI0
aI1
aI0
aI0
aI0
aI0
aI2
aI71
aI0
aI3
aI2
aI0
aI0
aI1
aI9
aI5
aI1
aI0
aI1
aI0
aI10
aI3
aI9
aI16
aI0
aI30
aI1
aI16
aI16
aI6
aI14
aI3
aI13
aI0
aI0
aI12
aI2
aI196
aI15
aI1
aI16
aI23
aI13
aI23
aI10
aI1
aI1
aI15
aI3
aI16
aI23
aI15
aI21
aI8
aI2
aI20
aI0
aI3
aI14
aI8
aI8
aI19
aI0
aI3
aI5
aI142
aI19
aI3
aI4
aI0
aI2
aI7
aI438
aI3
aI3
aI14
aI0
aI17
aI0
aI0
aI6
aI0
aI100
aI1
aI9
aI5
aI0
aI1
aI0
aI0
aI0
aI0
aI0
aI0
aI90
aI0
aI0
aI0
aI0
aI0
aI0
aI0
aI0
aI1
aI0
aI0
aI0
aI0
aI0
aI0
aI0
aI0
aI0
aI0
aI0
aI0
aI1
aI0
aI0
aI1
aI0
aI0
aI2
aI2
aI0
aI1
aI0
aI0
aI1
aI2
aI0
aI0
aI0
aI1
aI0
aI0
aI0
aI0
aI62
aI1
aI0
aI14
aI3
aI3
aI9
aI13
aI15
aI8
aI2
aI1
aI0
aI2
aI1
aI0
aI4
aI0
aI3
aI0
aI0
aI0
aI1
aI0
aI431
aI17
aI6
aI0
aI2
aI5
aI1
aI12
aI3
aI4
aI7
aI2
aI0
aI0
aI1
aI0
aI0
aI0
aI0
aI0
aI0
aI3228
aI0
aI0
aI0
aI4
aI0
aI0
aI4
aI1
aI0
aI0
aI0
aI0
aI0
aI0
aI0
aI1
aI0
aI0
aI0
aI0
aI0
aI0
aI4
aI0
aI0
aI0
aI0
aI0
aI0
aI0
aI0
aI0
aI0
aI1
aI2
aI7
aI134
aI3
aI2
aI0
aI0
aI0
aI0
aI0
aI0
aI0
aI0
aI0
aI2
aI4
aI1
aI0
aI0
aI0
aI0
aI0
aI0
aI0
aI0
aI1
aI0
aI0
aI0
aI4
aI0
aI3
aI0
aI0
aI0
aI0
aI2
aI0
aI0
aI0
aI10
aI26
aI2
aI3
aI4
aI1
aI2
aI0
aI2
aI1
aI0
aI1
aI1
aI1
aI0
aI6
aI5
aI2
aI1
aI5
aI0
aI0
aI0
aI1
aI0
aI3
aI1
aI0
aI1
aI0
aI0
aI0
aI0
aI0
aI4
aI4
aI6
aI2
aI6
aI1
aI1
aI3
aI6
aI15
aI0
aI5
aI6
aI0
aI0
aI0
aI0
aI0
aI0
aI0
aI1
aI0
aI0
aI0
aI5
aI32
aI16
aI46
aI10
aI1
aI18
aI6
aI4
aI8
aI2
aI0
aI24
aI13
aI2
aI5
aI1
aI7
aI10
aI0
aI1
aI1
aI1
aI0
aI8
aI7
aI1
aI4
aI2
aI131
aI4
aI0
aI2
aI3
aI5
aI2
aI1
aI2
aI47
aI15
aI17
aI0
aI2
aI2
aI14
aI1
aI46
aI31
aI10
aI7
aI3
aI140
aI4
aI1
aI17
aI9
aI1
aI61
aI1
aI20
aI9
aI2
aI1
aI2
aI118
aI3
aI14
aI18
aI28
aI1
aI1
aI34
aI8
aI5
aI1
aI12
aI1
aI6
aI6
aI3
aI4
aI2
aI0
aI27
aI2
aI11
aI4
aI17
aI15
aI2
aI1
aI2
aI13
aI83
aI42
aI13
aI16
aI5
aI122
aI111
aI53
aI2
aI0
aI0
aI0
aI1
aI0
aI0
aI2
aI0
aI2
aI0
aI0
aI15
aI14
aI7
aI16
aI0
aI17
aI23
aI6
aI7
aI16
aI12
aI7
aI16
aI0
aI0
aI0
aI0
aI0
aI0
aI12
aI0
aI0
aI0
aI0
aI160
aI4
aI1
aI2
aI3
aI6
aI0
aI1
aI0
aI0
aI0
aI0
aI0
aI11
aI0
aI0
aI7
aI1
aI0
aI0
aI0
aI0
aI1
aI16
aI5
aI2
aI2
aI23
aI28
aI0
aI3
aI4
aI3
aI0
aI35
aI0
aI4
aI26
aI0
aI0
aI3
aI4
aI16
aI45
aI1
aI5
aI18
aI10
aI22
aI9
aI2
aI2
aI2
aI47
aI0
aI46
aI108
aI22
aI32
aI37
aI10
aI10
aI0
aI34
aI2
aI106
aI5
aI0
aI12
aI75
aI0
aI83
aI0
aI6
aI121
aI52
aI0
aI0
aI0
aI0
aI0
aI0
aI1
aI0
aI0
aI0
aI2
aI2
aI0
aI3
aI0
aI9
aI1
aI73
aI2
aI0
aI0
aI0
aI3
aI0
aI0
aI2
aI5
aI2
aI0
aI0
aI1
aI0
aI15
aI23
aI7
aI11
aI3
aI0
aI22
aI8
aI0
aI0
aI0
aI5
aI5
aI0
aI1
aI5
aI7
aI57
aI18
aI1
aI8
aI8
aI3
aI7
aI17
aI0
aI1
aI0
aI1
aI57
aI0
aI7
aI0
aI0
aI0
aI1
aI0
aI0
aI0
aI0
aI0
aI0
aI0
aI0
aI0
aI0
aI0
aI0
aI0
aI0
aI0
aI0
aI0
aI0
aI0
aI1
aI0
aI0
aI0
aI0
aI0
aI0
aI0
aI0
aI0
aI0
aI1
aI0
aI0
aI0
aI0
aI0
aI0
aI0
aI0
aI0
aI2
aI0
aI0
aI0
aI0
aI0
aI1
aI0
aI0
aI1
aI0
aI3
aI1
aI0
aI0
aI10
aI0
aI0
aI0
aI1
aI1
aI0
aI1
aI0
aI1
aI1
aI19
aI0
aI16
aI0
aI0
aI22
aI22
aI0
aI946
aI0
aI0
aI0
aI2
aI15
aI1
aI0
aI1
aI5
aI10
aI252
aI2
aI0
aI0
aI0
aI0
aI11
aI4
aI35
aI1
aI0
aI2
aI0
aI22
aI22
aI0
aI15
aI1
aI1
aI14
aI0
aI6
aI0
aI1
aI1
aI1
aI28
aI4
aI5
aI0
aI16
aI5
aI0
aI1
aI16
aI0
aI0
aI6
aI53
aI57
aI5
aI2
aI158
aI3
aI0
aI22
aI0
aI89
aI0
aI0
aI0
aI0
aI0
aI3
aI0
aI0
aI0
aI0
aI0
aI1
aI0
aI0
aI0
aI0
aI0
aI0
aI0
aI0
aI0
aI0
aI0
aI0
aI0
aI1
aI0
aI0
aI4
aI12
aI0
aI0
aI1
aI0
aI3
aI0
aI0
aI0
aI0
aI0
aI0
aI0
aI0
aI0
aI0
aI0
aI0
aI0
aI0
aI0
aI0
aI0
aI0
aI3
aI1
aI3
aI0
aI0
aI0
aI0
aI0
aI0
aI0
aI0
aI0
aI0
aI0
aI0
aI1
aI0
aI99
aI1
aI0
aI0
aI2
aI0
aI4
aI0
aI2
aI0
aI0
aI0
aI0
aI3
aI0
aI0
aI0
aI0
aI0
aI1
aI2
aI0
aI0
aI0
aI0
aI0
aI0
aI0
aI1
aI3
aI1
aI0
aI0
aI1
aI1
aI0
aI1
aI0
aI0
aI9
aI0
aI0
aI1
aI0
aI5
aI0
aI0
aI1
aI0
aI2
aI2
aI0
aI0
aI0
aI7
aI0
aI0
aI0
aI0
aI0
aI0
aI5
aI0
aI0
aI2
aI1
aI542
aI2
aI7
aI5
aI1
aI0
aI0
aI4
aI0
aI9
aI0
aI0
aI0
aI0
aI0
aI0
aI78
aI0
aI0
aI3
aI0
aI1
aI0
aI0
aI0
aI1
aI2
aI1
aI1
aI0
aI0
aI0
aI2
aI1
aI5
aI0
aI14
aI10
aI2
aI0
aI3
aI2
aI0
aI0
aI15
aI0
aI0
aI0
aI0
aI0
aI1
aI0
aI2
aI0
aI0
aI0
aI2
aI0
aI3
aI0
aI8
aI19
aI0
aI0
aI0
aI2
aI5
aI0
aI93
aI5
aI0
aI0
aI1
aI1
aI3
aI0
aI1
aI1
aI0
aI1
aI1
aI0
aI0
aI3
aI0
aI2
aI1
aI2
aI0
aI0
aI4
aI0
aI0
aI0
aI3
aI0
aI0
aI1
aI6
aI0
aI1
aI1
aI2
aI7
aI0
aI6
aI2
aI3
aI1
aI1
aI2
aI2
aI16
aI109
aI0
aI6
aI7
aI1
aI1
aI16
aI0
aI1
aI0
aI4
aI0
aI1
aI2
aI4
aI3
aI0
aI0
aI5
aI0
aI6
aI0
aI1
aI2
aI0
aI0
aI0
aI30
aI0
aI0
aI12
aI3
aI5
aI0
aI1
aI12
aI6
aI0
aI8
aI10
aI9
aI1
aI6
aI11
aI6
aI2
aI3
aI0
aI0
aI1
aI14
aI11
aI1
aI1
aI1
aI0
aI4
aI5
aI5
aI2
aI2
aI5
aI1
aI4
aI8
aI1
aI2
aI5
aI14
aI11
aI36
aI12
aI12
aI0
aI10
aI0
aI15
aI0
aI75
aI2
aI2
aI0
aI24
aI1
aI1
aI12
aI0
aI0
aI1
aI1
aI8
aI3
aI0
aI56
aI5
aI14
aI14
aI11
aI47
aI0
aI4
aI19
aI6
aI0
aI27
aI15
aI1
aI19
aI1
aI2
aI6
aI18
aI53
aI248
aI2
aI4
aI10
aI46
aI5
aI6
aI15
aI3
aI1
aI29
aI0
aI9
aI10
aI0
aI17
aI2
aI3
aI2
aI5
aI7
aI20
aI1
aI4
aI7
aI2
aI0
aI1
aI1
aI7
aI7
aI2
aI34
aI10
aI4
aI0
aI28
aI0
aI6
aI3
aI172
aI5
aI2
aI4
aI5054
aI43
aI43
aI7
aI11
aI1
aI0
aI8
aI2
aI52
aI5
aI24
aI142
aI6
aI6
aI2
aI7
aI51
aI107
aI2
aI27
aI6
aI12
aI0
aI4
aI58
aI6
aI41
aI41
aI9
aI11
aI4
aI83
aI32
aI10
aI0
aI99
aI13
aI10
aI569
aI0
aI0
aI6
aI0
aI50
aI1
aI0
aI0
aI26
aI1427
aI0
aI1
aI0
aI0
aI7
aI8
aI3
aI3
aI18
aI75
aI16
aI7
aI7
aI9
aI4
aI2
aI1275
aI0
aI0
aI16
aI2
aI1
aI117
aI52
aI8
aI122
aI2
aI2
aI0
aI159
aI111
aI5
aI22
aI64
aI56
aI0
aI26
aI298
aI3
as.